ARM GAS  /tmp/ccaB5zJT.s 			page 1


   1              		.cpu cortex-m0
   2              		.eabi_attribute 20, 1
   3              		.eabi_attribute 21, 1
   4              		.eabi_attribute 23, 3
   5              		.eabi_attribute 24, 1
   6              		.eabi_attribute 25, 1
   7              		.eabi_attribute 26, 1
   8              		.eabi_attribute 30, 4
   9              		.eabi_attribute 34, 0
  10              		.eabi_attribute 18, 4
  11              		.file	"main.cpp"
  12              		.text
  13              	.Ltext0:
  14              		.cfi_sections	.debug_frame
  15              		.section	.text._ZN5Timer6notifyEv,"ax",%progbits
  16              		.align	1
  17              		.global	_ZN5Timer6notifyEv
  18              		.syntax unified
  19              		.code	16
  20              		.thumb_func
  21              		.fpu softvfp
  23              	_ZN5Timer6notifyEv:
  24              	.LFB252:
  25              		.file 1 "../../src/timers.h"
   1:../../src/timers.h **** #pragma once
   2:../../src/timers.h **** 
   3:../../src/timers.h **** #include <cstdint>
   4:../../src/timers.h **** #include "systick.h"
   5:../../src/timers.h **** #include "subscriber.h"
   6:../../src/timers.h **** 
   7:../../src/timers.h **** 
   8:../../src/timers.h **** struct TickUpdater : Publisher
   9:../../src/timers.h **** {
  10:../../src/timers.h **** #if not defined(TEST) 
  11:../../src/timers.h ****    TickUpdater() { mcu::make_reference<mcu::Periph::SysTick>().initInterrupt<1>(); }
  12:../../src/timers.h **** #endif
  13:../../src/timers.h **** } tickUpdater;
  14:../../src/timers.h **** 
  15:../../src/timers.h **** extern "C" void SysTick_Handler()
  16:../../src/timers.h **** {
  17:../../src/timers.h ****    tickUpdater.notify();
  18:../../src/timers.h **** }
  19:../../src/timers.h **** 
  20:../../src/timers.h **** 
  21:../../src/timers.h **** class TickSubscriber : Subscriber
  22:../../src/timers.h **** {
  23:../../src/timers.h **** protected:
  24:../../src/timers.h ****    bool subscribed {false};
  25:../../src/timers.h ****    void subscribe();
  26:../../src/timers.h ****    void unsubscribe();
  27:../../src/timers.h **** };
  28:../../src/timers.h **** 
  29:../../src/timers.h **** 
  30:../../src/timers.h **** 
  31:../../src/timers.h **** class Timer : TickSubscriber
  32:../../src/timers.h **** {
  33:../../src/timers.h **** public:
ARM GAS  /tmp/ccaB5zJT.s 			page 2


  34:../../src/timers.h ****    Timer() = default;
  35:../../src/timers.h ****    Timer (uint32_t ms) { start(ms); }
  36:../../src/timers.h **** 
  37:../../src/timers.h ****    void     start   (uint32_t ms); /// –∑–∞–ø—É—Å–∫–∞–µ—Ç —Å—á—ë—Ç —Å —Ç–µ–∫—É—â–µ–≥–æ –∑–Ω–∞—á–µ–Ω
  38:../../src/timers.h ****    bool     event();   /// –≤–æ–∑–≤—Ä–∞—â–∞–µ—Ç true, –µ—Å–ª–∏ —Ç–∞–π–º–µ—Ä –Ω–∞—Ç–∏–∫–∞–ª –∏ –ø–µ—
  39:../../src/timers.h ****    bool     done();    /// –≤–æ–∑–≤—Ä–∞—â–∞–µ—Ç true, –µ—Å–ª–∏ —Ç–∞–π–º–µ—Ä –Ω–∞—Ç–∏–∫–∞–ª –∏ –ù–ï 
  40:../../src/timers.h ****    void     pause();   /// –æ—Å—Ç–∞–Ω–∞–≤–ª–∏–≤–∞–µ—Ç —Å—á—ë—Ç, –Ω–æ –Ω–µ —Å–±—Ä–∞—Å—ã–≤–∞–µ—Ç —Å—á
  41:../../src/timers.h ****    void     start();   /// –∑–∞–ø—É—Å–∫–∞–µ—Ç —Å—á—ë—Ç —Å —Ç–µ–∫—É—â–µ–≥–æ –∑–Ω–∞—á–µ–Ω–∏—è —Å—á—ë—
  42:../../src/timers.h ****    void     stop();    /// –æ—Å—Ç–∞–Ω–∞–≤–ª–∏–≤–∞–µ—Ç —Å—á—ë—Ç –∏ —Å–±—Ä–∞—Å—ã–≤–∞–µ—Ç —Å—á—ë—Ç—á–∏
  43:../../src/timers.h ****    bool     isGreater (uint32_t val); /// –≤–æ–∑–≤—Ä–∞—â–∞–µ—Ç true, –µ—Å–ª–∏ —Å—á—ë—Ç—á–∏–∫ –Ω–∞—Ç
  44:../../src/timers.h ****    bool     isCount(); /// –≤–æ–∑–≤—Ä–∞—â–∞–µ—Ç true –µ—Å–ª–∏ —Å—á–∏—Ç–∞–µ—Ç, –Ω–æ –Ω–µ –¥–æ—Å—á–∏—
  45:../../src/timers.h ****    uint32_t timePassed(); /// –≤–æ–∑–≤—Ä–∞—â–∞–µ—Ç —Å–∫–æ–ª—å–∫–æ –Ω–∞—Ç–∏–∫–∞–ª
  46:../../src/timers.h ****    uint32_t timeLeft();   /// –≤–æ–∑–≤—Ä–∞—â–∞–µ—Ç —Å–∫–æ–ª—å–∫–æ –æ—Å—Ç–∞–ª–æ—Å—å
  47:../../src/timers.h ****    template<class function>
  48:../../src/timers.h ****    void     event (function); /// –≤—ã–ø–æ–ª–Ω—è–µ—Ç function, –∫–æ–≥–¥–∞ –¥–æ—Ç–∏–∫–∞–ª –∏ –ø–µ—Ä–
  49:../../src/timers.h **** 
  50:../../src/timers.h ****    volatile uint32_t timeSet {0};
  51:../../src/timers.h **** private:
  52:../../src/timers.h ****    volatile uint32_t timePassed_ {0};	
  53:../../src/timers.h **** 
  54:../../src/timers.h ****    void notify() override;
  55:../../src/timers.h **** };
  56:../../src/timers.h **** 
  57:../../src/timers.h **** 
  58:../../src/timers.h **** 
  59:../../src/timers.h **** void Timer::notify()
  60:../../src/timers.h **** {
  26              		.loc 1 60 0
  27              		.cfi_startproc
  28              		@ args = 0, pretend = 0, frame = 0
  29              		@ frame_needed = 0, uses_anonymous_args = 0
  30              		@ link register save eliminated.
  31              	.LVL0:
  61:../../src/timers.h ****    timePassed_++;
  32              		.loc 1 61 0
  33 0000 4369     		ldr	r3, [r0, #20]
  62:../../src/timers.h **** }
  34              		.loc 1 62 0
  35              		@ sp needed
  61:../../src/timers.h ****    timePassed_++;
  36              		.loc 1 61 0
  37 0002 0133     		adds	r3, r3, #1
  38 0004 4361     		str	r3, [r0, #20]
  39              		.loc 1 62 0
  40 0006 7047     		bx	lr
  41              		.cfi_endproc
  42              	.LFE252:
  44              		.section	.text._ZN3mcu3DMA21clear_interrupt_flagsENS_8DMA_bits7ChannelE,"ax",%progbits
  45              		.align	1
  46              		.global	_ZN3mcu3DMA21clear_interrupt_flagsENS_8DMA_bits7ChannelE
  47              		.syntax unified
  48              		.code	16
  49              		.thumb_func
  50              		.fpu softvfp
  52              	_ZN3mcu3DMA21clear_interrupt_flagsENS_8DMA_bits7ChannelE:
  53              	.LFB129:
  54              		.file 2 "../../src/periph/f1_dma.h"
ARM GAS  /tmp/ccaB5zJT.s 			page 3


   1:../../src/periph/f1_dma.h **** #pragma once
   2:../../src/periph/f1_dma.h **** 
   3:../../src/periph/f1_dma.h **** #include "f1_bits_dma.h"
   4:../../src/periph/f1_dma.h **** 
   5:../../src/periph/f1_dma.h **** namespace mcu {
   6:../../src/periph/f1_dma.h **** 
   7:../../src/periph/f1_dma.h **** class DMA 
   8:../../src/periph/f1_dma.h **** {
   9:../../src/periph/f1_dma.h ****    __IO DMA_bits::ISR  ISR;  // DMA interrupt status register     offset: 0x00
  10:../../src/periph/f1_dma.h ****    __IO DMA_bits::IFCR IFCR; // DMA interrupt flag clear register offset: 0x04
  11:../../src/periph/f1_dma.h **** 
  12:../../src/periph/f1_dma.h **** public:
  13:../../src/periph/f1_dma.h ****    using CMSIS_type = DMA_TypeDef;
  14:../../src/periph/f1_dma.h ****    using Channel    = DMA_bits::Channel;
  15:../../src/periph/f1_dma.h **** 
  16:../../src/periph/f1_dma.h ****    template <Periph dma, Periph rcc = Periph::RCC> DMA& clock_enable(){make_reference<rcc>().templa
  17:../../src/periph/f1_dma.h ****    void clear_interrupt_flags         (Channel);
  18:../../src/periph/f1_dma.h ****    bool is_transfer_complete_interrupt(Channel);
  19:../../src/periph/f1_dma.h **** };
  20:../../src/periph/f1_dma.h **** 
  21:../../src/periph/f1_dma.h **** 
  22:../../src/periph/f1_dma.h **** template <Periph dma> std::enable_if_t<dma == Periph::DMA1, DMA&> make_reference() {return *reinter
  23:../../src/periph/f1_dma.h **** 
  24:../../src/periph/f1_dma.h **** 
  25:../../src/periph/f1_dma.h **** 
  26:../../src/periph/f1_dma.h **** 
  27:../../src/periph/f1_dma.h **** 
  28:../../src/periph/f1_dma.h **** 
  29:../../src/periph/f1_dma.h **** 
  30:../../src/periph/f1_dma.h **** 
  31:../../src/periph/f1_dma.h **** 
  32:../../src/periph/f1_dma.h **** 
  33:../../src/periph/f1_dma.h **** 
  34:../../src/periph/f1_dma.h **** 
  35:../../src/periph/f1_dma.h **** 
  36:../../src/periph/f1_dma.h **** 
  37:../../src/periph/f1_dma.h **** 
  38:../../src/periph/f1_dma.h **** 
  39:../../src/periph/f1_dma.h **** void DMA::clear_interrupt_flags(Channel channel)
  40:../../src/periph/f1_dma.h **** {
  55              		.loc 2 40 0
  56              		.cfi_startproc
  57              		@ args = 0, pretend = 0, frame = 0
  58              		@ frame_needed = 0, uses_anonymous_args = 0
  59              		@ link register save eliminated.
  60              	.LVL1:
  41:../../src/periph/f1_dma.h ****    if      (channel == Channel::_1) IFCR.CGIF1 = true;
  61              		.loc 2 41 0
  62 0000 0129     		cmp	r1, #1
  63 0002 03D1     		bne	.L3
  64              		.loc 2 41 0 is_stmt 0 discriminator 1
  65 0004 0379     		ldrb	r3, [r0, #4]
  66 0006 1943     		orrs	r1, r3
  67              	.LVL2:
  68 0008 0171     		strb	r1, [r0, #4]
  69              	.L2:
  42:../../src/periph/f1_dma.h ****    else if (channel == Channel::_2) IFCR.CGIF2 = true;
ARM GAS  /tmp/ccaB5zJT.s 			page 4


  43:../../src/periph/f1_dma.h ****    else if (channel == Channel::_3) IFCR.CGIF3 = true;
  44:../../src/periph/f1_dma.h ****    else if (channel == Channel::_4) IFCR.CGIF4 = true;
  45:../../src/periph/f1_dma.h ****    else if (channel == Channel::_5) IFCR.CGIF5 = true;
  46:../../src/periph/f1_dma.h ****    else if (channel == Channel::_6) IFCR.CGIF6 = true;
  47:../../src/periph/f1_dma.h ****    else if (channel == Channel::_7) IFCR.CGIF7 = true;
  48:../../src/periph/f1_dma.h **** }
  70              		.loc 2 48 0 is_stmt 1
  71              		@ sp needed
  72 000a 7047     		bx	lr
  73              	.LVL3:
  74              	.L3:
  42:../../src/periph/f1_dma.h ****    else if (channel == Channel::_2) IFCR.CGIF2 = true;
  75              		.loc 2 42 0
  76 000c 0229     		cmp	r1, #2
  77 000e 04D1     		bne	.L5
  42:../../src/periph/f1_dma.h ****    else if (channel == Channel::_2) IFCR.CGIF2 = true;
  78              		.loc 2 42 0 is_stmt 0 discriminator 1
  79 0010 1023     		movs	r3, #16
  80 0012 0279     		ldrb	r2, [r0, #4]
  81 0014 1343     		orrs	r3, r2
  82 0016 0371     		strb	r3, [r0, #4]
  83 0018 F7E7     		b	.L2
  84              	.L5:
  43:../../src/periph/f1_dma.h ****    else if (channel == Channel::_4) IFCR.CGIF4 = true;
  85              		.loc 2 43 0 is_stmt 1
  86 001a 0329     		cmp	r1, #3
  87 001c 04D1     		bne	.L6
  43:../../src/periph/f1_dma.h ****    else if (channel == Channel::_4) IFCR.CGIF4 = true;
  88              		.loc 2 43 0 is_stmt 0 discriminator 1
  89 001e 0123     		movs	r3, #1
  90 0020 4279     		ldrb	r2, [r0, #5]
  91              	.L10:
  44:../../src/periph/f1_dma.h ****    else if (channel == Channel::_5) IFCR.CGIF5 = true;
  92              		.loc 2 44 0 is_stmt 1 discriminator 1
  93 0022 1343     		orrs	r3, r2
  94 0024 4371     		strb	r3, [r0, #5]
  95 0026 F0E7     		b	.L2
  96              	.L6:
  44:../../src/periph/f1_dma.h ****    else if (channel == Channel::_5) IFCR.CGIF5 = true;
  97              		.loc 2 44 0 is_stmt 0
  98 0028 0429     		cmp	r1, #4
  99 002a 02D1     		bne	.L7
  44:../../src/periph/f1_dma.h ****    else if (channel == Channel::_5) IFCR.CGIF5 = true;
 100              		.loc 2 44 0 discriminator 1
 101 002c 4279     		ldrb	r2, [r0, #5]
 102 002e 1023     		movs	r3, #16
 103 0030 F7E7     		b	.L10
 104              	.L7:
  45:../../src/periph/f1_dma.h ****    else if (channel == Channel::_6) IFCR.CGIF6 = true;
 105              		.loc 2 45 0 is_stmt 1
 106 0032 0529     		cmp	r1, #5
 107 0034 04D1     		bne	.L8
  45:../../src/periph/f1_dma.h ****    else if (channel == Channel::_6) IFCR.CGIF6 = true;
 108              		.loc 2 45 0 is_stmt 0 discriminator 1
 109 0036 0123     		movs	r3, #1
 110 0038 8279     		ldrb	r2, [r0, #6]
 111              	.L11:
ARM GAS  /tmp/ccaB5zJT.s 			page 5


  46:../../src/periph/f1_dma.h ****    else if (channel == Channel::_7) IFCR.CGIF7 = true;
 112              		.loc 2 46 0 is_stmt 1 discriminator 1
 113 003a 1343     		orrs	r3, r2
 114 003c 8371     		strb	r3, [r0, #6]
 115 003e E4E7     		b	.L2
 116              	.L8:
  46:../../src/periph/f1_dma.h ****    else if (channel == Channel::_7) IFCR.CGIF7 = true;
 117              		.loc 2 46 0 is_stmt 0
 118 0040 0629     		cmp	r1, #6
 119 0042 02D1     		bne	.L9
  46:../../src/periph/f1_dma.h ****    else if (channel == Channel::_7) IFCR.CGIF7 = true;
 120              		.loc 2 46 0 discriminator 1
 121 0044 8279     		ldrb	r2, [r0, #6]
 122 0046 1023     		movs	r3, #16
 123 0048 F7E7     		b	.L11
 124              	.L9:
  47:../../src/periph/f1_dma.h **** }
 125              		.loc 2 47 0 is_stmt 1
 126 004a 0729     		cmp	r1, #7
 127 004c DDD1     		bne	.L2
  47:../../src/periph/f1_dma.h **** }
 128              		.loc 2 47 0 is_stmt 0 discriminator 1
 129 004e 0123     		movs	r3, #1
 130 0050 C279     		ldrb	r2, [r0, #7]
 131 0052 1343     		orrs	r3, r2
 132 0054 C371     		strb	r3, [r0, #7]
 133              		.loc 2 48 0 is_stmt 1 discriminator 1
 134 0056 D8E7     		b	.L2
 135              		.cfi_endproc
 136              	.LFE129:
 138              		.section	.text._ZN3mcu3DMA30is_transfer_complete_interruptENS_8DMA_bits7ChannelE,"ax",%progbits
 139              		.align	1
 140              		.global	_ZN3mcu3DMA30is_transfer_complete_interruptENS_8DMA_bits7ChannelE
 141              		.syntax unified
 142              		.code	16
 143              		.thumb_func
 144              		.fpu softvfp
 146              	_ZN3mcu3DMA30is_transfer_complete_interruptENS_8DMA_bits7ChannelE:
 147              	.LFB130:
  49:../../src/periph/f1_dma.h **** 
  50:../../src/periph/f1_dma.h **** bool DMA::is_transfer_complete_interrupt(Channel channel)
  51:../../src/periph/f1_dma.h **** {
 148              		.loc 2 51 0
 149              		.cfi_startproc
 150              		@ args = 0, pretend = 0, frame = 0
 151              		@ frame_needed = 0, uses_anonymous_args = 0
 152              		@ link register save eliminated.
 153              	.LVL4:
 154              		.loc 2 51 0
 155 0000 0300     		movs	r3, r0
  52:../../src/periph/f1_dma.h ****    if      (channel == Channel::_1) return ISR.TCIF1;
 156              		.loc 2 52 0
 157 0002 0129     		cmp	r1, #1
 158 0004 02D1     		bne	.L13
 159              		.loc 2 52 0 is_stmt 0 discriminator 1
 160 0006 0078     		ldrb	r0, [r0]
 161              	.LVL5:
ARM GAS  /tmp/ccaB5zJT.s 			page 6


 162              	.L21:
  53:../../src/periph/f1_dma.h ****    else if (channel == Channel::_2) return ISR.TCIF2;
  54:../../src/periph/f1_dma.h ****    else if (channel == Channel::_3) return ISR.TCIF3;
  55:../../src/periph/f1_dma.h ****    else if (channel == Channel::_4) return ISR.TCIF4;
  56:../../src/periph/f1_dma.h ****    else if (channel == Channel::_5) return ISR.TCIF5;
  57:../../src/periph/f1_dma.h ****    else if (channel == Channel::_6) return ISR.TCIF6;
  58:../../src/periph/f1_dma.h ****    else if (channel == Channel::_7) return ISR.TCIF7;
 163              		.loc 2 58 0 is_stmt 1 discriminator 1
 164 0008 8007     		lsls	r0, r0, #30
 165 000a 03E0     		b	.L22
 166              	.LVL6:
 167              	.L13:
  53:../../src/periph/f1_dma.h ****    else if (channel == Channel::_2) return ISR.TCIF2;
 168              		.loc 2 53 0
 169 000c 0229     		cmp	r1, #2
 170 000e 03D1     		bne	.L15
  53:../../src/periph/f1_dma.h ****    else if (channel == Channel::_2) return ISR.TCIF2;
 171              		.loc 2 53 0 is_stmt 0 discriminator 1
 172 0010 0078     		ldrb	r0, [r0]
 173              	.LVL7:
 174              	.L23:
  57:../../src/periph/f1_dma.h ****    else if (channel == Channel::_7) return ISR.TCIF7;
 175              		.loc 2 57 0 is_stmt 1 discriminator 1
 176 0012 8006     		lsls	r0, r0, #26
 177              	.L22:
 178              		.loc 2 58 0 discriminator 1
 179 0014 C00F     		lsrs	r0, r0, #31
 180              	.L14:
  59:../../src/periph/f1_dma.h ****    else return false;
  60:../../src/periph/f1_dma.h **** }
 181              		.loc 2 60 0
 182              		@ sp needed
 183 0016 7047     		bx	lr
 184              	.LVL8:
 185              	.L15:
  54:../../src/periph/f1_dma.h ****    else if (channel == Channel::_4) return ISR.TCIF4;
 186              		.loc 2 54 0
 187 0018 0329     		cmp	r1, #3
 188 001a 01D1     		bne	.L16
  54:../../src/periph/f1_dma.h ****    else if (channel == Channel::_4) return ISR.TCIF4;
 189              		.loc 2 54 0 is_stmt 0 discriminator 1
 190 001c 4078     		ldrb	r0, [r0, #1]
 191              	.LVL9:
 192 001e F3E7     		b	.L21
 193              	.LVL10:
 194              	.L16:
  55:../../src/periph/f1_dma.h ****    else if (channel == Channel::_5) return ISR.TCIF5;
 195              		.loc 2 55 0 is_stmt 1
 196 0020 0429     		cmp	r1, #4
 197 0022 01D1     		bne	.L17
  55:../../src/periph/f1_dma.h ****    else if (channel == Channel::_5) return ISR.TCIF5;
 198              		.loc 2 55 0 is_stmt 0 discriminator 1
 199 0024 4078     		ldrb	r0, [r0, #1]
 200              	.LVL11:
 201 0026 F4E7     		b	.L23
 202              	.LVL12:
 203              	.L17:
ARM GAS  /tmp/ccaB5zJT.s 			page 7


  56:../../src/periph/f1_dma.h ****    else if (channel == Channel::_6) return ISR.TCIF6;
 204              		.loc 2 56 0 is_stmt 1
 205 0028 0529     		cmp	r1, #5
 206 002a 01D1     		bne	.L18
  56:../../src/periph/f1_dma.h ****    else if (channel == Channel::_6) return ISR.TCIF6;
 207              		.loc 2 56 0 is_stmt 0 discriminator 1
 208 002c 8078     		ldrb	r0, [r0, #2]
 209              	.LVL13:
 210 002e EBE7     		b	.L21
 211              	.LVL14:
 212              	.L18:
  57:../../src/periph/f1_dma.h ****    else if (channel == Channel::_7) return ISR.TCIF7;
 213              		.loc 2 57 0 is_stmt 1
 214 0030 0629     		cmp	r1, #6
 215 0032 01D1     		bne	.L19
  57:../../src/periph/f1_dma.h ****    else if (channel == Channel::_7) return ISR.TCIF7;
 216              		.loc 2 57 0 is_stmt 0 discriminator 1
 217 0034 8078     		ldrb	r0, [r0, #2]
 218              	.LVL15:
 219 0036 ECE7     		b	.L23
 220              	.LVL16:
 221              	.L19:
  59:../../src/periph/f1_dma.h **** }
 222              		.loc 2 59 0 is_stmt 1
 223 0038 0020     		movs	r0, #0
 224              	.LVL17:
  58:../../src/periph/f1_dma.h ****    else return false;
 225              		.loc 2 58 0
 226 003a 0729     		cmp	r1, #7
 227 003c EBD1     		bne	.L14
  58:../../src/periph/f1_dma.h ****    else return false;
 228              		.loc 2 58 0 is_stmt 0 discriminator 1
 229 003e D878     		ldrb	r0, [r3, #3]
 230 0040 E2E7     		b	.L21
 231              		.cfi_endproc
 232              	.LFE130:
 234              		.section	.text.SysTick_Handler,"ax",%progbits
 235              		.align	1
 236              		.global	SysTick_Handler
 237              		.syntax unified
 238              		.code	16
 239              		.thumb_func
 240              		.fpu softvfp
 242              	SysTick_Handler:
 243              	.LFB239:
  16:../../src/timers.h ****    tickUpdater.notify();
 244              		.loc 1 16 0 is_stmt 1
 245              		.cfi_startproc
 246              		@ args = 0, pretend = 0, frame = 0
 247              		@ frame_needed = 0, uses_anonymous_args = 0
 248              	.LVL18:
 249              	.LBB269:
 250              	.LBB270:
 251              		.file 3 "../../src/subscriber.h"
   1:../../src/subscriber.h **** #pragma once
   2:../../src/subscriber.h **** 
   3:../../src/subscriber.h **** #pragma once
ARM GAS  /tmp/ccaB5zJT.s 			page 8


   4:../../src/subscriber.h **** 
   5:../../src/subscriber.h **** #include "list.h"
   6:../../src/subscriber.h **** 
   7:../../src/subscriber.h **** struct Subscriber : Listable<Subscriber> {
   8:../../src/subscriber.h ****    virtual void notify() = 0;
   9:../../src/subscriber.h **** };
  10:../../src/subscriber.h **** 
  11:../../src/subscriber.h **** struct Publisher : private List<Subscriber>
  12:../../src/subscriber.h **** {
  13:../../src/subscriber.h ****    void subscribe  (Subscriber* p) { push_back(p); }
  14:../../src/subscriber.h ****    void unsubscribe(Subscriber* p) { remove(p);    }
  15:../../src/subscriber.h ****    // —Å—Å—ã–ª–∫–∞, —á—Ç–æ–±—ã –Ω–µ –∫–æ–ø–∏—Ä–æ–≤–∞–ª –∫–∞–∂–¥—ã–π subscriber –∏–∑ *this
  16:../../src/subscriber.h ****    void notify() {
  17:../../src/subscriber.h ****       for (auto& subscriber : *this)
 252              		.loc 3 17 0
 253 0000 054B     		ldr	r3, .L27
 254              	.LBE270:
 255              	.LBE269:
  16:../../src/timers.h ****    tickUpdater.notify();
 256              		.loc 1 16 0
 257 0002 10B5     		push	{r4, lr}
 258              	.LCFI0:
 259              		.cfi_def_cfa_offset 8
 260              		.cfi_offset 4, -8
 261              		.cfi_offset 14, -4
 262              	.LBB274:
 263              	.LBB273:
 264              		.loc 3 17 0
 265 0004 1C68     		ldr	r4, [r3]
 266              	.LVL19:
 267              	.L26:
 268 0006 002C     		cmp	r4, #0
 269 0008 05D0     		beq	.L24
  18:../../src/subscriber.h ****          subscriber.notify();
 270              		.loc 3 18 0
 271 000a 2368     		ldr	r3, [r4]
 272 000c 2000     		movs	r0, r4
 273 000e 1B68     		ldr	r3, [r3]
 274 0010 9847     		blx	r3
 275              	.LVL20:
 276              	.LBB271:
 277              	.LBB272:
 278              		.file 4 "../../src/list.h"
   1:../../src/list.h **** #pragma once
   2:../../src/list.h **** 
   3:../../src/list.h **** 
   4:../../src/list.h **** template<class T> struct Listable
   5:../../src/list.h **** {
   6:../../src/list.h ****    T* prev {nullptr};
   7:../../src/list.h ****    T* next {nullptr};
   8:../../src/list.h **** };
   9:../../src/list.h **** 
  10:../../src/list.h **** template<class T> class List
  11:../../src/list.h **** {
  12:../../src/list.h ****    T* first {nullptr};
  13:../../src/list.h ****    T* last  {nullptr};
  14:../../src/list.h **** public:
ARM GAS  /tmp/ccaB5zJT.s 			page 9


  15:../../src/list.h ****    void push_back  (T*);
  16:../../src/list.h ****    void push_front (T*);
  17:../../src/list.h ****    void remove     (T*);
  18:../../src/list.h ****    
  19:../../src/list.h ****    class Iterator
  20:../../src/list.h ****    {
  21:../../src/list.h ****       T* p {nullptr};
  22:../../src/list.h ****    public:
  23:../../src/list.h ****       Iterator (T*);
  24:../../src/list.h ****       Iterator() = default;
  25:../../src/list.h **** 
  26:../../src/list.h ****       T&        operator*  () const;
  27:../../src/list.h ****       bool      operator!= (const Iterator&) const;
  28:../../src/list.h ****       Iterator& operator++ ();
  29:../../src/list.h ****    };
  30:../../src/list.h **** 
  31:../../src/list.h ****    Iterator begin();
  32:../../src/list.h ****    Iterator end();
  33:../../src/list.h **** };
  34:../../src/list.h **** 
  35:../../src/list.h **** 
  36:../../src/list.h **** 
  37:../../src/list.h **** 
  38:../../src/list.h **** 
  39:../../src/list.h **** template<class T>
  40:../../src/list.h **** void List<T>::push_back (T* p)
  41:../../src/list.h **** {
  42:../../src/list.h ****    p->prev = last;
  43:../../src/list.h ****    if (last)
  44:../../src/list.h ****       last->next = p;
  45:../../src/list.h ****    last = p;
  46:../../src/list.h ****    if (not first)
  47:../../src/list.h ****       first = p;
  48:../../src/list.h **** }
  49:../../src/list.h **** 
  50:../../src/list.h **** 
  51:../../src/list.h **** template<class T>
  52:../../src/list.h **** void List<T>::push_front (T* p)
  53:../../src/list.h **** {
  54:../../src/list.h ****    // –Ω–µ —Ä–µ–∞–ª–∏–∑–æ–≤–∞–Ω
  55:../../src/list.h **** }
  56:../../src/list.h **** 
  57:../../src/list.h **** 
  58:../../src/list.h **** template<class T>
  59:../../src/list.h **** void List<T>::remove (T* p)
  60:../../src/list.h **** {
  61:../../src/list.h ****    if (p->prev and p->next) {       // –µ—Å–ª–∏ –≤ —Å–µ—Ä–µ–¥–∏–Ω–∫–µ
  62:../../src/list.h ****       p->prev->next = p->next;
  63:../../src/list.h ****       p->next->prev = p->prev;
  64:../../src/list.h ****    } else if (p->next) {            // –µ—Å–ª–∏ –ø–µ—Ä–≤—ã–π
  65:../../src/list.h ****       first = p->next;
  66:../../src/list.h ****       first->prev = nullptr;
  67:../../src/list.h ****       if (not first) last = nullptr;
  68:../../src/list.h ****    } else if (p->prev) {            // –µ—Å–ª–∏ –ø–æ—Å–ª–µ–¥–Ω–∏–π
  69:../../src/list.h ****       last = p->prev;
  70:../../src/list.h ****       last->next = nullptr;
  71:../../src/list.h ****       if (not last) first = nullptr;
ARM GAS  /tmp/ccaB5zJT.s 			page 10


  72:../../src/list.h ****    } else {                         // –µ—Å–ª–∏ –µ–¥–∏–Ω—Å—Ç–≤–µ–Ω–Ω—ã–π 
  73:../../src/list.h ****       first = nullptr;
  74:../../src/list.h ****       last  = nullptr;
  75:../../src/list.h ****    }
  76:../../src/list.h ****    p->prev = nullptr;
  77:../../src/list.h ****    p->next = nullptr;
  78:../../src/list.h **** 
  79:../../src/list.h **** }
  80:../../src/list.h **** 
  81:../../src/list.h **** 
  82:../../src/list.h **** template<class T>
  83:../../src/list.h **** typename List<T>::Iterator List<T>::begin()
  84:../../src/list.h **** {
  85:../../src/list.h ****    return List<T>::Iterator {first};
  86:../../src/list.h **** }
  87:../../src/list.h **** 
  88:../../src/list.h **** 
  89:../../src/list.h **** template<class T>
  90:../../src/list.h **** typename List<T>::Iterator List<T>::end()
  91:../../src/list.h **** {
  92:../../src/list.h ****    return List<T>::Iterator();
  93:../../src/list.h **** }
  94:../../src/list.h **** 
  95:../../src/list.h **** 
  96:../../src/list.h **** 
  97:../../src/list.h **** 
  98:../../src/list.h **** 
  99:../../src/list.h **** 
 100:../../src/list.h **** /// Iterator
 101:../../src/list.h **** template<class T>
 102:../../src/list.h **** List<T>::Iterator::Iterator (T* other) : p {other} {}
 103:../../src/list.h **** 
 104:../../src/list.h **** template<class T>
 105:../../src/list.h **** T& List<T>::Iterator::operator* () const 
 106:../../src/list.h **** {
 107:../../src/list.h ****    return *p;
 108:../../src/list.h **** }
 109:../../src/list.h **** 
 110:../../src/list.h **** template<class T>
 111:../../src/list.h **** bool List<T>::Iterator::operator!= (const List<T>::Iterator& other) const
 112:../../src/list.h **** {
 113:../../src/list.h ****    return p != other.p;
 114:../../src/list.h **** }
 115:../../src/list.h **** 
 116:../../src/list.h **** template<class T>
 117:../../src/list.h **** typename List<T>::Iterator& List<T>::Iterator::operator++ ()
 118:../../src/list.h **** {
 119:../../src/list.h ****    p = p->next;
 279              		.loc 4 119 0
 280 0012 A468     		ldr	r4, [r4, #8]
 281              	.LVL21:
 282 0014 F7E7     		b	.L26
 283              	.LVL22:
 284              	.L24:
 285              	.LBE272:
 286              	.LBE271:
 287              	.LBE273:
ARM GAS  /tmp/ccaB5zJT.s 			page 11


 288              	.LBE274:
  18:../../src/timers.h **** 
 289              		.loc 1 18 0
 290              		@ sp needed
 291              	.LVL23:
 292 0016 10BD     		pop	{r4, pc}
 293              	.L28:
 294              		.align	2
 295              	.L27:
 296 0018 00000000 		.word	.LANCHOR0
 297              		.cfi_endproc
 298              	.LFE239:
 300              		.section	.text._ZN5Timer5eventEv,"ax",%progbits
 301              		.align	1
 302              		.global	_ZN5Timer5eventEv
 303              		.syntax unified
 304              		.code	16
 305              		.thumb_func
 306              		.fpu softvfp
 308              	_ZN5Timer5eventEv:
 309              	.LFB254:
  63:../../src/timers.h **** 
  64:../../src/timers.h **** 
  65:../../src/timers.h **** 
  66:../../src/timers.h **** void Timer::start (uint32_t ms)
  67:../../src/timers.h **** {
  68:../../src/timers.h ****    timeSet = ms;
  69:../../src/timers.h ****    subscribe();
  70:../../src/timers.h **** }
  71:../../src/timers.h **** 
  72:../../src/timers.h **** 
  73:../../src/timers.h **** bool Timer::event()
  74:../../src/timers.h **** {
 310              		.loc 1 74 0
 311              		.cfi_startproc
 312              		@ args = 0, pretend = 0, frame = 0
 313              		@ frame_needed = 0, uses_anonymous_args = 0
 314              		@ link register save eliminated.
 315              	.LVL24:
  75:../../src/timers.h ****    if (timePassed_ >= timeSet) {
 316              		.loc 1 75 0
 317 0000 4169     		ldr	r1, [r0, #20]
 318 0002 0269     		ldr	r2, [r0, #16]
 319 0004 0023     		movs	r3, #0
 320 0006 9142     		cmp	r1, r2
 321 0008 01D3     		bcc	.L30
  76:../../src/timers.h ****       timePassed_ = 0;
 322              		.loc 1 76 0
 323 000a 4361     		str	r3, [r0, #20]
  77:../../src/timers.h ****       return (true);
 324              		.loc 1 77 0
 325 000c 0133     		adds	r3, r3, #1
 326              	.L30:
  78:../../src/timers.h ****    } else {
  79:../../src/timers.h ****       return (false);
  80:../../src/timers.h ****    }
  81:../../src/timers.h **** }
ARM GAS  /tmp/ccaB5zJT.s 			page 12


 327              		.loc 1 81 0
 328 000e 1800     		movs	r0, r3
 329              	.LVL25:
 330              		@ sp needed
 331 0010 7047     		bx	lr
 332              		.cfi_endproc
 333              	.LFE254:
 335              		.section	.text._ZN5Timer4doneEv,"ax",%progbits
 336              		.align	1
 337              		.global	_ZN5Timer4doneEv
 338              		.syntax unified
 339              		.code	16
 340              		.thumb_func
 341              		.fpu softvfp
 343              	_ZN5Timer4doneEv:
 344              	.LFB257:
  82:../../src/timers.h **** 
  83:../../src/timers.h **** 
  84:../../src/timers.h **** template<class Functor>
  85:../../src/timers.h **** void Timer::event (Functor functor)
  86:../../src/timers.h **** {
  87:../../src/timers.h ****    if (timePassed_ >= timeSet) {
  88:../../src/timers.h ****       timePassed_ = 0;
  89:../../src/timers.h ****       functor();
  90:../../src/timers.h ****    }
  91:../../src/timers.h **** }
  92:../../src/timers.h **** 
  93:../../src/timers.h **** 
  94:../../src/timers.h **** void Timer::stop()
  95:../../src/timers.h **** {
  96:../../src/timers.h ****    timePassed_ = 0;
  97:../../src/timers.h ****    unsubscribe();
  98:../../src/timers.h **** }
  99:../../src/timers.h **** 
 100:../../src/timers.h **** 
 101:../../src/timers.h **** bool     Timer::done()       { return timePassed_ >= timeSet; }
 345              		.loc 1 101 0
 346              		.cfi_startproc
 347              		@ args = 0, pretend = 0, frame = 0
 348              		@ frame_needed = 0, uses_anonymous_args = 0
 349              		@ link register save eliminated.
 350              	.LVL26:
 351              		.loc 1 101 0
 352 0000 4269     		ldr	r2, [r0, #20]
 353 0002 0369     		ldr	r3, [r0, #16]
 354 0004 0020     		movs	r0, #0
 355              	.LVL27:
 356 0006 9A42     		cmp	r2, r3
 357 0008 4041     		adcs	r0, r0, r0
 358              		@ sp needed
 359 000a C0B2     		uxtb	r0, r0
 360 000c 7047     		bx	lr
 361              		.cfi_endproc
 362              	.LFE257:
 364              		.section	.text._ZN5Timer7isCountEv,"ax",%progbits
 365              		.align	1
 366              		.global	_ZN5Timer7isCountEv
ARM GAS  /tmp/ccaB5zJT.s 			page 13


 367              		.syntax unified
 368              		.code	16
 369              		.thumb_func
 370              		.fpu softvfp
 372              	_ZN5Timer7isCountEv:
 373              	.LFB260:
 102:../../src/timers.h **** void     Timer::pause()      { unsubscribe(); }
 103:../../src/timers.h **** void     Timer::start()      { subscribe();  }
 104:../../src/timers.h **** bool     Timer::isCount()    { return subscribed; }
 374              		.loc 1 104 0
 375              		.cfi_startproc
 376              		@ args = 0, pretend = 0, frame = 0
 377              		@ frame_needed = 0, uses_anonymous_args = 0
 378              		@ link register save eliminated.
 379              	.LVL28:
 380              		.loc 1 104 0
 381 0000 007B     		ldrb	r0, [r0, #12]
 382              	.LVL29:
 383              		@ sp needed
 384 0002 7047     		bx	lr
 385              		.cfi_endproc
 386              	.LFE260:
 388              		.section	.text._ZN5Timer10timePassedEv,"ax",%progbits
 389              		.align	1
 390              		.global	_ZN5Timer10timePassedEv
 391              		.syntax unified
 392              		.code	16
 393              		.thumb_func
 394              		.fpu softvfp
 396              	_ZN5Timer10timePassedEv:
 397              	.LFB261:
 105:../../src/timers.h **** uint32_t Timer::timePassed() { return timePassed_; }
 398              		.loc 1 105 0
 399              		.cfi_startproc
 400              		@ args = 0, pretend = 0, frame = 0
 401              		@ frame_needed = 0, uses_anonymous_args = 0
 402              		@ link register save eliminated.
 403              	.LVL30:
 404              		.loc 1 105 0
 405 0000 4069     		ldr	r0, [r0, #20]
 406              	.LVL31:
 407              		@ sp needed
 408 0002 7047     		bx	lr
 409              		.cfi_endproc
 410              	.LFE261:
 412              		.section	.text._ZN5Timer8timeLeftEv,"ax",%progbits
 413              		.align	1
 414              		.global	_ZN5Timer8timeLeftEv
 415              		.syntax unified
 416              		.code	16
 417              		.thumb_func
 418              		.fpu softvfp
 420              	_ZN5Timer8timeLeftEv:
 421              	.LFB262:
 106:../../src/timers.h **** uint32_t Timer::timeLeft(  ) { return timeSet - timePassed_; }
 422              		.loc 1 106 0
 423              		.cfi_startproc
ARM GAS  /tmp/ccaB5zJT.s 			page 14


 424              		@ args = 0, pretend = 0, frame = 0
 425              		@ frame_needed = 0, uses_anonymous_args = 0
 426              		@ link register save eliminated.
 427              	.LVL32:
 428              		.loc 1 106 0
 429 0000 0369     		ldr	r3, [r0, #16]
 430 0002 4069     		ldr	r0, [r0, #20]
 431              	.LVL33:
 432              		@ sp needed
 433 0004 181A     		subs	r0, r3, r0
 434 0006 7047     		bx	lr
 435              		.cfi_endproc
 436              	.LFE262:
 438              		.section	.text._ZN5Timer9isGreaterEm,"ax",%progbits
 439              		.align	1
 440              		.global	_ZN5Timer9isGreaterEm
 441              		.syntax unified
 442              		.code	16
 443              		.thumb_func
 444              		.fpu softvfp
 446              	_ZN5Timer9isGreaterEm:
 447              	.LFB263:
 107:../../src/timers.h **** bool     Timer::isGreater (uint32_t val) { return timePassed_ > val; }
 448              		.loc 1 107 0
 449              		.cfi_startproc
 450              		@ args = 0, pretend = 0, frame = 0
 451              		@ frame_needed = 0, uses_anonymous_args = 0
 452              		@ link register save eliminated.
 453              	.LVL34:
 454              		.loc 1 107 0
 455 0000 4069     		ldr	r0, [r0, #20]
 456              	.LVL35:
 457              		@ sp needed
 458 0002 8142     		cmp	r1, r0
 459 0004 8041     		sbcs	r0, r0, r0
 460 0006 4042     		rsbs	r0, r0, #0
 461 0008 7047     		bx	lr
 462              		.cfi_endproc
 463              	.LFE263:
 465              		.section	.text._ZN14TickSubscriber11unsubscribeEv,"ax",%progbits
 466              		.align	1
 467              		.global	_ZN14TickSubscriber11unsubscribeEv
 468              		.syntax unified
 469              		.code	16
 470              		.thumb_func
 471              		.fpu softvfp
 473              	_ZN14TickSubscriber11unsubscribeEv:
 474              	.LFB264:
 108:../../src/timers.h **** 
 109:../../src/timers.h **** 
 110:../../src/timers.h **** 
 111:../../src/timers.h **** void TickSubscriber::unsubscribe()
 112:../../src/timers.h **** {
 475              		.loc 1 112 0
 476              		.cfi_startproc
 477              		@ args = 0, pretend = 0, frame = 0
 478              		@ frame_needed = 0, uses_anonymous_args = 0
ARM GAS  /tmp/ccaB5zJT.s 			page 15


 479              		@ link register save eliminated.
 480              	.LVL36:
 113:../../src/timers.h ****    if (subscribed) {
 481              		.loc 1 113 0
 482 0000 037B     		ldrb	r3, [r0, #12]
 483 0002 002B     		cmp	r3, #0
 484 0004 0DD0     		beq	.L37
 485              	.LVL37:
 486              	.LBB281:
 487              	.LBB282:
 114:../../src/timers.h ****       subscribed = false;
 488              		.loc 1 114 0
 489 0006 0023     		movs	r3, #0
 490              	.LBB283:
 491              	.LBB284:
 492              	.LBB285:
  61:../../src/list.h ****       p->prev->next = p->next;
 493              		.loc 4 61 0
 494 0008 4268     		ldr	r2, [r0, #4]
 495              	.LBE285:
 496              	.LBE284:
 497              	.LBE283:
 498              		.loc 1 114 0
 499 000a 0373     		strb	r3, [r0, #12]
 500              	.LVL38:
 501 000c 8368     		ldr	r3, [r0, #8]
 502              	.LBB290:
 503              	.LBB288:
 504              	.LBB286:
  61:../../src/list.h ****       p->prev->next = p->next;
 505              		.loc 4 61 0
 506 000e 002A     		cmp	r2, #0
 507 0010 0ED0     		beq	.L39
 508 0012 002B     		cmp	r3, #0
 509 0014 08D0     		beq	.L40
  62:../../src/list.h ****       p->next->prev = p->prev;
 510              		.loc 4 62 0
 511 0016 9360     		str	r3, [r2, #8]
  63:../../src/list.h ****    } else if (p->next) {            // –µ—Å–ª–∏ –ø–µ—Ä–≤—ã–π
 512              		.loc 4 63 0
 513 0018 8368     		ldr	r3, [r0, #8]
 514              	.L48:
  66:../../src/list.h ****       if (not first) last = nullptr;
 515              		.loc 4 66 0
 516 001a 5A60     		str	r2, [r3, #4]
 517              	.L41:
  76:../../src/list.h ****    p->next = nullptr;
 518              		.loc 4 76 0
 519 001c 0023     		movs	r3, #0
 520 001e 4360     		str	r3, [r0, #4]
  77:../../src/list.h **** 
 521              		.loc 4 77 0
 522 0020 8360     		str	r3, [r0, #8]
 523              	.LVL39:
 524              	.L37:
 525              	.LBE286:
 526              	.LBE288:
ARM GAS  /tmp/ccaB5zJT.s 			page 16


 527              	.LBE290:
 528              	.LBE282:
 529              	.LBE281:
 115:../../src/timers.h ****       tickUpdater.unsubscribe (this);
 116:../../src/timers.h ****    }
 117:../../src/timers.h **** }
 530              		.loc 1 117 0
 531              		@ sp needed
 532 0022 7047     		bx	lr
 533              	.LVL40:
 534              	.L42:
 535              	.LBB293:
 536              	.LBB292:
 537              	.LBB291:
 538              	.LBB289:
 539              	.LBB287:
  65:../../src/list.h ****       first->prev = nullptr;
 540              		.loc 4 65 0
 541 0024 0B60     		str	r3, [r1]
 542 0026 F8E7     		b	.L48
 543              	.L40:
  69:../../src/list.h ****       last->next = nullptr;
 544              		.loc 4 69 0
 545 0028 0449     		ldr	r1, .L49
  70:../../src/list.h ****       if (not last) first = nullptr;
 546              		.loc 4 70 0
 547 002a 9360     		str	r3, [r2, #8]
  69:../../src/list.h ****       last->next = nullptr;
 548              		.loc 4 69 0
 549 002c 4A60     		str	r2, [r1, #4]
 550 002e F5E7     		b	.L41
 551              	.L39:
 552 0030 0249     		ldr	r1, .L49
  64:../../src/list.h ****       first = p->next;
 553              		.loc 4 64 0
 554 0032 002B     		cmp	r3, #0
 555 0034 F6D1     		bne	.L42
  73:../../src/list.h ****       last  = nullptr;
 556              		.loc 4 73 0
 557 0036 0B60     		str	r3, [r1]
  74:../../src/list.h ****    }
 558              		.loc 4 74 0
 559 0038 4B60     		str	r3, [r1, #4]
 560 003a EFE7     		b	.L41
 561              	.L50:
 562              		.align	2
 563              	.L49:
 564 003c 00000000 		.word	.LANCHOR0
 565              	.LBE287:
 566              	.LBE289:
 567              	.LBE291:
 568              	.LBE292:
 569              	.LBE293:
 570              		.cfi_endproc
 571              	.LFE264:
 573              		.section	.text._ZN5Timer4stopEv,"ax",%progbits
 574              		.align	1
ARM GAS  /tmp/ccaB5zJT.s 			page 17


 575              		.global	_ZN5Timer4stopEv
 576              		.syntax unified
 577              		.code	16
 578              		.thumb_func
 579              		.fpu softvfp
 581              	_ZN5Timer4stopEv:
 582              	.LFB256:
  95:../../src/timers.h ****    timePassed_ = 0;
 583              		.loc 1 95 0
 584              		.cfi_startproc
 585              		@ args = 0, pretend = 0, frame = 0
 586              		@ frame_needed = 0, uses_anonymous_args = 0
 587              	.LVL41:
  96:../../src/timers.h ****    unsubscribe();
 588              		.loc 1 96 0
 589 0000 0023     		movs	r3, #0
  95:../../src/timers.h ****    timePassed_ = 0;
 590              		.loc 1 95 0
 591 0002 10B5     		push	{r4, lr}
 592              	.LCFI1:
 593              		.cfi_def_cfa_offset 8
 594              		.cfi_offset 4, -8
 595              		.cfi_offset 14, -4
  96:../../src/timers.h ****    unsubscribe();
 596              		.loc 1 96 0
 597 0004 4361     		str	r3, [r0, #20]
  97:../../src/timers.h **** }
 598              		.loc 1 97 0
 599 0006 FFF7FEFF 		bl	_ZN14TickSubscriber11unsubscribeEv
 600              	.LVL42:
  98:../../src/timers.h **** 
 601              		.loc 1 98 0
 602              		@ sp needed
 603 000a 10BD     		pop	{r4, pc}
 604              		.cfi_endproc
 605              	.LFE256:
 607              		.section	.text._ZN5Timer5pauseEv,"ax",%progbits
 608              		.align	1
 609              		.global	_ZN5Timer5pauseEv
 610              		.syntax unified
 611              		.code	16
 612              		.thumb_func
 613              		.fpu softvfp
 615              	_ZN5Timer5pauseEv:
 616              	.LFB258:
 102:../../src/timers.h **** void     Timer::start()      { subscribe();  }
 617              		.loc 1 102 0
 618              		.cfi_startproc
 619              		@ args = 0, pretend = 0, frame = 0
 620              		@ frame_needed = 0, uses_anonymous_args = 0
 621              	.LVL43:
 622 0000 10B5     		push	{r4, lr}
 623              	.LCFI2:
 624              		.cfi_def_cfa_offset 8
 625              		.cfi_offset 4, -8
 626              		.cfi_offset 14, -4
 102:../../src/timers.h **** void     Timer::start()      { subscribe();  }
ARM GAS  /tmp/ccaB5zJT.s 			page 18


 627              		.loc 1 102 0
 628 0002 FFF7FEFF 		bl	_ZN14TickSubscriber11unsubscribeEv
 629              	.LVL44:
 630              		@ sp needed
 631 0006 10BD     		pop	{r4, pc}
 632              		.cfi_endproc
 633              	.LFE258:
 635              		.section	.text._ZN14TickSubscriber9subscribeEv,"ax",%progbits
 636              		.align	1
 637              		.global	_ZN14TickSubscriber9subscribeEv
 638              		.syntax unified
 639              		.code	16
 640              		.thumb_func
 641              		.fpu softvfp
 643              	_ZN14TickSubscriber9subscribeEv:
 644              	.LFB265:
 118:../../src/timers.h **** 
 119:../../src/timers.h **** 
 120:../../src/timers.h **** void TickSubscriber::subscribe()
 121:../../src/timers.h **** {
 645              		.loc 1 121 0
 646              		.cfi_startproc
 647              		@ args = 0, pretend = 0, frame = 0
 648              		@ frame_needed = 0, uses_anonymous_args = 0
 649              		@ link register save eliminated.
 650              	.LVL45:
 122:../../src/timers.h ****    if (not subscribed) {
 651              		.loc 1 122 0
 652 0000 037B     		ldrb	r3, [r0, #12]
 653 0002 002B     		cmp	r3, #0
 654 0004 0CD1     		bne	.L53
 655              	.LVL46:
 656              	.LBB300:
 657              	.LBB301:
 123:../../src/timers.h ****       subscribed = true;
 658              		.loc 1 123 0
 659 0006 0133     		adds	r3, r3, #1
 660 0008 0373     		strb	r3, [r0, #12]
 661              	.LVL47:
 662              	.LBB302:
 663              	.LBB303:
 664              	.LBB304:
  42:../../src/list.h ****    if (last)
 665              		.loc 4 42 0
 666 000a 064B     		ldr	r3, .L61
 667 000c 5A68     		ldr	r2, [r3, #4]
 668 000e 4260     		str	r2, [r0, #4]
  43:../../src/list.h ****       last->next = p;
 669              		.loc 4 43 0
 670 0010 002A     		cmp	r2, #0
 671 0012 00D0     		beq	.L56
  44:../../src/list.h ****    last = p;
 672              		.loc 4 44 0
 673 0014 9060     		str	r0, [r2, #8]
 674              	.L56:
  46:../../src/list.h ****       first = p;
 675              		.loc 4 46 0
ARM GAS  /tmp/ccaB5zJT.s 			page 19


 676 0016 1A68     		ldr	r2, [r3]
  45:../../src/list.h ****    if (not first)
 677              		.loc 4 45 0
 678 0018 5860     		str	r0, [r3, #4]
  46:../../src/list.h ****       first = p;
 679              		.loc 4 46 0
 680 001a 002A     		cmp	r2, #0
 681 001c 00D1     		bne	.L53
  47:../../src/list.h **** }
 682              		.loc 4 47 0
 683 001e 1860     		str	r0, [r3]
 684              	.LVL48:
 685              	.L53:
 686              	.LBE304:
 687              	.LBE303:
 688              	.LBE302:
 689              	.LBE301:
 690              	.LBE300:
 124:../../src/timers.h ****       tickUpdater.subscribe (this);
 125:../../src/timers.h ****    }
 126:../../src/timers.h **** }...
 691              		.loc 1 126 0
 692              		@ sp needed
 693 0020 7047     		bx	lr
 694              	.L62:
 695 0022 C046     		.align	2
 696              	.L61:
 697 0024 00000000 		.word	.LANCHOR0
 698              		.cfi_endproc
 699              	.LFE265:
 701              		.section	.text._ZN5Timer5startEm,"ax",%progbits
 702              		.align	1
 703              		.global	_ZN5Timer5startEm
 704              		.syntax unified
 705              		.code	16
 706              		.thumb_func
 707              		.fpu softvfp
 709              	_ZN5Timer5startEm:
 710              	.LFB253:
  67:../../src/timers.h **** {
 711              		.loc 1 67 0
 712              		.cfi_startproc
 713              		@ args = 0, pretend = 0, frame = 0
 714              		@ frame_needed = 0, uses_anonymous_args = 0
 715              	.LVL49:
 716 0000 10B5     		push	{r4, lr}
 717              	.LCFI3:
 718              		.cfi_def_cfa_offset 8
 719              		.cfi_offset 4, -8
 720              		.cfi_offset 14, -4
  68:../../src/timers.h ****    timeSet = ms;
 721              		.loc 1 68 0
 722 0002 0161     		str	r1, [r0, #16]
  69:../../src/timers.h ****    subscribe();
 723              		.loc 1 69 0
 724 0004 FFF7FEFF 		bl	_ZN14TickSubscriber9subscribeEv
 725              	.LVL50:
ARM GAS  /tmp/ccaB5zJT.s 			page 20


  70:../../src/timers.h **** }
 726              		.loc 1 70 0
 727              		@ sp needed
 728 0008 10BD     		pop	{r4, pc}
 729              		.cfi_endproc
 730              	.LFE253:
 732              		.section	.text._ZN5Timer5startEv,"ax",%progbits
 733              		.align	1
 734              		.global	_ZN5Timer5startEv
 735              		.syntax unified
 736              		.code	16
 737              		.thumb_func
 738              		.fpu softvfp
 740              	_ZN5Timer5startEv:
 741              	.LFB259:
 103:../../src/timers.h **** void     Timer::start()      { subscribe();  }
 742              		.loc 1 103 0
 743              		.cfi_startproc
 744              		@ args = 0, pretend = 0, frame = 0
 745              		@ frame_needed = 0, uses_anonymous_args = 0
 746              	.LVL51:
 747 0000 10B5     		push	{r4, lr}
 748              	.LCFI4:
 749              		.cfi_def_cfa_offset 8
 750              		.cfi_offset 4, -8
 751              		.cfi_offset 14, -4
 103:../../src/timers.h **** void     Timer::start()      { subscribe();  }
 752              		.loc 1 103 0
 753 0002 FFF7FEFF 		bl	_ZN14TickSubscriber9subscribeEv
 754              	.LVL52:
 755              		@ sp needed
 756 0006 10BD     		pop	{r4, pc}
 757              		.cfi_endproc
 758              	.LFE259:
 760              		.section	.text._ZN9Interrupt9interruptEv,"axG",%progbits,_ZN9Interrupt9interruptEv,comdat
 761              		.align	1
 762              		.weak	_ZN9Interrupt9interruptEv
 763              		.syntax unified
 764              		.code	16
 765              		.thumb_func
 766              		.fpu softvfp
 768              	_ZN9Interrupt9interruptEv:
 769              	.LFB268:
 770              		.file 5 "../../src/interrupt.h"
   1:../../src/interrupt.h **** #pragma once
   2:../../src/interrupt.h **** 
   3:../../src/interrupt.h **** #include "periph.h"
   4:../../src/interrupt.h **** 
   5:../../src/interrupt.h **** /// –∏–Ω—Ç–µ—Ä—Ñ–µ–π—Å –¥–ª—è –ø–æ–¥–ø–∏—Å–∫–∏ –Ω–∞ –ø—Ä–µ—Ä—ã–≤–∞–Ω–∏—è
   6:../../src/interrupt.h **** struct Interrupting
   7:../../src/interrupt.h **** {
   8:../../src/interrupt.h ****    Interrupting* next {nullptr};
   9:../../src/interrupt.h ****    virtual void interrupt() = 0;
  10:../../src/interrupt.h **** };
  11:../../src/interrupt.h **** 
  12:../../src/interrupt.h **** class Interrupt 
  13:../../src/interrupt.h **** {
ARM GAS  /tmp/ccaB5zJT.s 			page 21


  14:../../src/interrupt.h ****    Interrupting* first{nullptr};
  15:../../src/interrupt.h ****    void clearInterruptFlags(){};
  16:../../src/interrupt.h **** 
  17:../../src/interrupt.h **** public:
  18:../../src/interrupt.h ****    
  19:../../src/interrupt.h ****    
  20:../../src/interrupt.h ****    void subscribe(Interrupting* ps)
  21:../../src/interrupt.h ****    {
  22:../../src/interrupt.h ****       auto p = first;
  23:../../src/interrupt.h ****       if (p) {
  24:../../src/interrupt.h ****          while (p->next)
  25:../../src/interrupt.h ****             p = p->next;
  26:../../src/interrupt.h ****          p->next = ps;
  27:../../src/interrupt.h ****       } else {  
  28:../../src/interrupt.h ****          first = ps;
  29:../../src/interrupt.h ****       } 
  30:../../src/interrupt.h ****    }
  31:../../src/interrupt.h ****    void interrupt()
 771              		.loc 5 31 0
 772              		.cfi_startproc
 773              		@ args = 0, pretend = 0, frame = 0
 774              		@ frame_needed = 0, uses_anonymous_args = 0
 775              	.LVL53:
 776 0000 10B5     		push	{r4, lr}
 777              	.LCFI5:
 778              		.cfi_def_cfa_offset 8
 779              		.cfi_offset 4, -8
 780              		.cfi_offset 14, -4
  32:../../src/interrupt.h ****    {
  33:../../src/interrupt.h ****       auto p = first;
 781              		.loc 5 33 0
 782 0002 0468     		ldr	r4, [r0]
 783              	.LVL54:
 784              	.L67:
  34:../../src/interrupt.h ****       while (p) {
 785              		.loc 5 34 0
 786 0004 002C     		cmp	r4, #0
 787 0006 05D0     		beq	.L65
  35:../../src/interrupt.h ****          p->interrupt();
 788              		.loc 5 35 0
 789 0008 2368     		ldr	r3, [r4]
 790 000a 2000     		movs	r0, r4
 791 000c 1B68     		ldr	r3, [r3]
 792 000e 9847     		blx	r3
 793              	.LVL55:
  36:../../src/interrupt.h ****          p = p->next;
 794              		.loc 5 36 0
 795 0010 6468     		ldr	r4, [r4, #4]
 796              	.LVL56:
  34:../../src/interrupt.h ****       while (p) {
 797              		.loc 5 34 0
 798 0012 F7E7     		b	.L67
 799              	.L65:
  37:../../src/interrupt.h ****       }
  38:../../src/interrupt.h ****       clearInterruptFlags();
  39:../../src/interrupt.h ****    }
 800              		.loc 5 39 0
ARM GAS  /tmp/ccaB5zJT.s 			page 22


 801              		@ sp needed
 802              	.LVL57:
 803 0014 10BD     		pop	{r4, pc}
 804              		.cfi_endproc
 805              	.LFE268:
 807              		.section	.text.WWDG_IRQHandler,"ax",%progbits
 808              		.align	1
 809              		.global	WWDG_IRQHandler
 810              		.syntax unified
 811              		.code	16
 812              		.thumb_func
 813              		.fpu softvfp
 815              	WWDG_IRQHandler:
 816              	.LFB272:
 817              		.file 6 "../../src/interrupts.h"
   1:../../src/interrupts.h **** #pragma once
   2:../../src/interrupts.h **** #include "interrupt.h"
   3:../../src/interrupts.h **** 
   4:../../src/interrupts.h **** #if defined (STM32F103xB)
   5:../../src/interrupts.h **** 
   6:../../src/interrupts.h **** 	// —Å–ø–∏—Å–æ–∫ –ø—Ä–µ—Ä—ã–≤–∞–Ω–∏–π, –∫–æ—Ç–æ—Ä—ã–µ –Ω–µ –æ–ø–∏—Å–∞–Ω—ã
   7:../../src/interrupts.h **** 	extern "C" void WWDG_IRQHandler            () { while(1) {} }
 818              		.loc 6 7 0
 819              		.cfi_startproc
 820              		@ Volatile: function does not return.
 821              		@ args = 0, pretend = 0, frame = 0
 822              		@ frame_needed = 0, uses_anonymous_args = 0
 823              		@ link register save eliminated.
 824              	.L69:
 825 0000 FEE7     		b	.L69
 826              		.cfi_endproc
 827              	.LFE272:
 829              		.section	.text.PVD_IRQHandler,"ax",%progbits
 830              		.align	1
 831              		.global	PVD_IRQHandler
 832              		.syntax unified
 833              		.code	16
 834              		.thumb_func
 835              		.fpu softvfp
 837              	PVD_IRQHandler:
 838              	.LFB273:
   8:../../src/interrupts.h ****    extern "C" void PVD_IRQHandler             () { while(1) {} }
 839              		.loc 6 8 0
 840              		.cfi_startproc
 841              		@ Volatile: function does not return.
 842              		@ args = 0, pretend = 0, frame = 0
 843              		@ frame_needed = 0, uses_anonymous_args = 0
 844              		@ link register save eliminated.
 845              	.L71:
 846 0000 FEE7     		b	.L71
 847              		.cfi_endproc
 848              	.LFE273:
 850              		.section	.text.TAMPER_IRQHandler,"ax",%progbits
 851              		.align	1
 852              		.global	TAMPER_IRQHandler
 853              		.syntax unified
 854              		.code	16
ARM GAS  /tmp/ccaB5zJT.s 			page 23


 855              		.thumb_func
 856              		.fpu softvfp
 858              	TAMPER_IRQHandler:
 859              	.LFB274:
   9:../../src/interrupts.h ****    extern "C" void TAMPER_IRQHandler          () { while(1) {} }
 860              		.loc 6 9 0
 861              		.cfi_startproc
 862              		@ Volatile: function does not return.
 863              		@ args = 0, pretend = 0, frame = 0
 864              		@ frame_needed = 0, uses_anonymous_args = 0
 865              		@ link register save eliminated.
 866              	.L73:
 867 0000 FEE7     		b	.L73
 868              		.cfi_endproc
 869              	.LFE274:
 871              		.section	.text.RTC_IRQHandler,"ax",%progbits
 872              		.align	1
 873              		.global	RTC_IRQHandler
 874              		.syntax unified
 875              		.code	16
 876              		.thumb_func
 877              		.fpu softvfp
 879              	RTC_IRQHandler:
 880              	.LFB275:
  10:../../src/interrupts.h ****    extern "C" void RTC_IRQHandler             () { while(1) {} }
 881              		.loc 6 10 0
 882              		.cfi_startproc
 883              		@ Volatile: function does not return.
 884              		@ args = 0, pretend = 0, frame = 0
 885              		@ frame_needed = 0, uses_anonymous_args = 0
 886              		@ link register save eliminated.
 887              	.L75:
 888 0000 FEE7     		b	.L75
 889              		.cfi_endproc
 890              	.LFE275:
 892              		.section	.text.FLASH_IRQHandler,"ax",%progbits
 893              		.align	1
 894              		.global	FLASH_IRQHandler
 895              		.syntax unified
 896              		.code	16
 897              		.thumb_func
 898              		.fpu softvfp
 900              	FLASH_IRQHandler:
 901              	.LFB276:
  11:../../src/interrupts.h ****    extern "C" void FLASH_IRQHandler           () { while(1) {} }
 902              		.loc 6 11 0
 903              		.cfi_startproc
 904              		@ Volatile: function does not return.
 905              		@ args = 0, pretend = 0, frame = 0
 906              		@ frame_needed = 0, uses_anonymous_args = 0
 907              		@ link register save eliminated.
 908              	.L77:
 909 0000 FEE7     		b	.L77
 910              		.cfi_endproc
 911              	.LFE276:
 913              		.section	.text.RCC_IRQHandler,"ax",%progbits
 914              		.align	1
ARM GAS  /tmp/ccaB5zJT.s 			page 24


 915              		.global	RCC_IRQHandler
 916              		.syntax unified
 917              		.code	16
 918              		.thumb_func
 919              		.fpu softvfp
 921              	RCC_IRQHandler:
 922              	.LFB277:
  12:../../src/interrupts.h ****    extern "C" void RCC_IRQHandler             () { while(1) {} }
 923              		.loc 6 12 0
 924              		.cfi_startproc
 925              		@ Volatile: function does not return.
 926              		@ args = 0, pretend = 0, frame = 0
 927              		@ frame_needed = 0, uses_anonymous_args = 0
 928              		@ link register save eliminated.
 929              	.L79:
 930 0000 FEE7     		b	.L79
 931              		.cfi_endproc
 932              	.LFE277:
 934              		.section	.text.EXTI0_IRQHandler,"ax",%progbits
 935              		.align	1
 936              		.global	EXTI0_IRQHandler
 937              		.syntax unified
 938              		.code	16
 939              		.thumb_func
 940              		.fpu softvfp
 942              	EXTI0_IRQHandler:
 943              	.LFB278:
  13:../../src/interrupts.h ****    extern "C" void EXTI0_IRQHandler           () { while(1) {} }
 944              		.loc 6 13 0
 945              		.cfi_startproc
 946              		@ Volatile: function does not return.
 947              		@ args = 0, pretend = 0, frame = 0
 948              		@ frame_needed = 0, uses_anonymous_args = 0
 949              		@ link register save eliminated.
 950              	.L81:
 951 0000 FEE7     		b	.L81
 952              		.cfi_endproc
 953              	.LFE278:
 955              		.section	.text.EXTI1_IRQHandler,"ax",%progbits
 956              		.align	1
 957              		.global	EXTI1_IRQHandler
 958              		.syntax unified
 959              		.code	16
 960              		.thumb_func
 961              		.fpu softvfp
 963              	EXTI1_IRQHandler:
 964              	.LFB279:
  14:../../src/interrupts.h ****    extern "C" void EXTI1_IRQHandler           () { while(1) {} }
 965              		.loc 6 14 0
 966              		.cfi_startproc
 967              		@ Volatile: function does not return.
 968              		@ args = 0, pretend = 0, frame = 0
 969              		@ frame_needed = 0, uses_anonymous_args = 0
 970              		@ link register save eliminated.
 971              	.L83:
 972 0000 FEE7     		b	.L83
 973              		.cfi_endproc
ARM GAS  /tmp/ccaB5zJT.s 			page 25


 974              	.LFE279:
 976              		.section	.text.EXTI2_IRQHandler,"ax",%progbits
 977              		.align	1
 978              		.global	EXTI2_IRQHandler
 979              		.syntax unified
 980              		.code	16
 981              		.thumb_func
 982              		.fpu softvfp
 984              	EXTI2_IRQHandler:
 985              	.LFB280:
  15:../../src/interrupts.h ****    extern "C" void EXTI2_IRQHandler           () { while(1) {} }
 986              		.loc 6 15 0
 987              		.cfi_startproc
 988              		@ Volatile: function does not return.
 989              		@ args = 0, pretend = 0, frame = 0
 990              		@ frame_needed = 0, uses_anonymous_args = 0
 991              		@ link register save eliminated.
 992              	.L85:
 993 0000 FEE7     		b	.L85
 994              		.cfi_endproc
 995              	.LFE280:
 997              		.section	.text.EXTI3_IRQHandler,"ax",%progbits
 998              		.align	1
 999              		.global	EXTI3_IRQHandler
 1000              		.syntax unified
 1001              		.code	16
 1002              		.thumb_func
 1003              		.fpu softvfp
 1005              	EXTI3_IRQHandler:
 1006              	.LFB281:
  16:../../src/interrupts.h ****    extern "C" void EXTI3_IRQHandler           () { while(1) {} }
 1007              		.loc 6 16 0
 1008              		.cfi_startproc
 1009              		@ Volatile: function does not return.
 1010              		@ args = 0, pretend = 0, frame = 0
 1011              		@ frame_needed = 0, uses_anonymous_args = 0
 1012              		@ link register save eliminated.
 1013              	.L87:
 1014 0000 FEE7     		b	.L87
 1015              		.cfi_endproc
 1016              	.LFE281:
 1018              		.section	.text.EXTI4_IRQHandler,"ax",%progbits
 1019              		.align	1
 1020              		.global	EXTI4_IRQHandler
 1021              		.syntax unified
 1022              		.code	16
 1023              		.thumb_func
 1024              		.fpu softvfp
 1026              	EXTI4_IRQHandler:
 1027              	.LFB282:
  17:../../src/interrupts.h ****    extern "C" void EXTI4_IRQHandler           () { while(1) {} }
 1028              		.loc 6 17 0
 1029              		.cfi_startproc
 1030              		@ Volatile: function does not return.
 1031              		@ args = 0, pretend = 0, frame = 0
 1032              		@ frame_needed = 0, uses_anonymous_args = 0
 1033              		@ link register save eliminated.
ARM GAS  /tmp/ccaB5zJT.s 			page 26


 1034              	.L89:
 1035 0000 FEE7     		b	.L89
 1036              		.cfi_endproc
 1037              	.LFE282:
 1039              		.section	.text.ADC1_2_IRQHandler,"ax",%progbits
 1040              		.align	1
 1041              		.global	ADC1_2_IRQHandler
 1042              		.syntax unified
 1043              		.code	16
 1044              		.thumb_func
 1045              		.fpu softvfp
 1047              	ADC1_2_IRQHandler:
 1048              	.LFB283:
  18:../../src/interrupts.h ****    extern "C" void ADC1_2_IRQHandler          () { while(1) {} }
 1049              		.loc 6 18 0
 1050              		.cfi_startproc
 1051              		@ Volatile: function does not return.
 1052              		@ args = 0, pretend = 0, frame = 0
 1053              		@ frame_needed = 0, uses_anonymous_args = 0
 1054              		@ link register save eliminated.
 1055              	.L91:
 1056 0000 FEE7     		b	.L91
 1057              		.cfi_endproc
 1058              	.LFE283:
 1060              		.section	.text.USB_HP_CAN1_TX_IRQHandler,"ax",%progbits
 1061              		.align	1
 1062              		.global	USB_HP_CAN1_TX_IRQHandler
 1063              		.syntax unified
 1064              		.code	16
 1065              		.thumb_func
 1066              		.fpu softvfp
 1068              	USB_HP_CAN1_TX_IRQHandler:
 1069              	.LFB284:
  19:../../src/interrupts.h ****    extern "C" void USB_HP_CAN1_TX_IRQHandler  () { while(1) {} }
 1070              		.loc 6 19 0
 1071              		.cfi_startproc
 1072              		@ Volatile: function does not return.
 1073              		@ args = 0, pretend = 0, frame = 0
 1074              		@ frame_needed = 0, uses_anonymous_args = 0
 1075              		@ link register save eliminated.
 1076              	.L93:
 1077 0000 FEE7     		b	.L93
 1078              		.cfi_endproc
 1079              	.LFE284:
 1081              		.section	.text.USB_LP_CAN1_RX0_IRQHandler,"ax",%progbits
 1082              		.align	1
 1083              		.global	USB_LP_CAN1_RX0_IRQHandler
 1084              		.syntax unified
 1085              		.code	16
 1086              		.thumb_func
 1087              		.fpu softvfp
 1089              	USB_LP_CAN1_RX0_IRQHandler:
 1090              	.LFB285:
  20:../../src/interrupts.h ****    extern "C" void USB_LP_CAN1_RX0_IRQHandler () { while(1) {} }
 1091              		.loc 6 20 0
 1092              		.cfi_startproc
 1093              		@ Volatile: function does not return.
ARM GAS  /tmp/ccaB5zJT.s 			page 27


 1094              		@ args = 0, pretend = 0, frame = 0
 1095              		@ frame_needed = 0, uses_anonymous_args = 0
 1096              		@ link register save eliminated.
 1097              	.L95:
 1098 0000 FEE7     		b	.L95
 1099              		.cfi_endproc
 1100              	.LFE285:
 1102              		.section	.text.CAN1_RX1_IRQHandler,"ax",%progbits
 1103              		.align	1
 1104              		.global	CAN1_RX1_IRQHandler
 1105              		.syntax unified
 1106              		.code	16
 1107              		.thumb_func
 1108              		.fpu softvfp
 1110              	CAN1_RX1_IRQHandler:
 1111              	.LFB286:
  21:../../src/interrupts.h ****    extern "C" void CAN1_RX1_IRQHandler        () { while(1) {} }
 1112              		.loc 6 21 0
 1113              		.cfi_startproc
 1114              		@ Volatile: function does not return.
 1115              		@ args = 0, pretend = 0, frame = 0
 1116              		@ frame_needed = 0, uses_anonymous_args = 0
 1117              		@ link register save eliminated.
 1118              	.L97:
 1119 0000 FEE7     		b	.L97
 1120              		.cfi_endproc
 1121              	.LFE286:
 1123              		.section	.text.CAN1_SCE_IRQHandler,"ax",%progbits
 1124              		.align	1
 1125              		.global	CAN1_SCE_IRQHandler
 1126              		.syntax unified
 1127              		.code	16
 1128              		.thumb_func
 1129              		.fpu softvfp
 1131              	CAN1_SCE_IRQHandler:
 1132              	.LFB287:
  22:../../src/interrupts.h ****    extern "C" void CAN1_SCE_IRQHandler        () { while(1) {} }
 1133              		.loc 6 22 0
 1134              		.cfi_startproc
 1135              		@ Volatile: function does not return.
 1136              		@ args = 0, pretend = 0, frame = 0
 1137              		@ frame_needed = 0, uses_anonymous_args = 0
 1138              		@ link register save eliminated.
 1139              	.L99:
 1140 0000 FEE7     		b	.L99
 1141              		.cfi_endproc
 1142              	.LFE287:
 1144              		.section	.text.EXTI9_5_IRQHandler,"ax",%progbits
 1145              		.align	1
 1146              		.global	EXTI9_5_IRQHandler
 1147              		.syntax unified
 1148              		.code	16
 1149              		.thumb_func
 1150              		.fpu softvfp
 1152              	EXTI9_5_IRQHandler:
 1153              	.LFB288:
  23:../../src/interrupts.h ****    extern "C" void EXTI9_5_IRQHandler         () { while(1) {} }
ARM GAS  /tmp/ccaB5zJT.s 			page 28


 1154              		.loc 6 23 0
 1155              		.cfi_startproc
 1156              		@ Volatile: function does not return.
 1157              		@ args = 0, pretend = 0, frame = 0
 1158              		@ frame_needed = 0, uses_anonymous_args = 0
 1159              		@ link register save eliminated.
 1160              	.L101:
 1161 0000 FEE7     		b	.L101
 1162              		.cfi_endproc
 1163              	.LFE288:
 1165              		.section	.text.TIM1_BRK_IRQHandler,"ax",%progbits
 1166              		.align	1
 1167              		.global	TIM1_BRK_IRQHandler
 1168              		.syntax unified
 1169              		.code	16
 1170              		.thumb_func
 1171              		.fpu softvfp
 1173              	TIM1_BRK_IRQHandler:
 1174              	.LFB289:
  24:../../src/interrupts.h ****    extern "C" void TIM1_BRK_IRQHandler        () { while(1) {} }
 1175              		.loc 6 24 0
 1176              		.cfi_startproc
 1177              		@ Volatile: function does not return.
 1178              		@ args = 0, pretend = 0, frame = 0
 1179              		@ frame_needed = 0, uses_anonymous_args = 0
 1180              		@ link register save eliminated.
 1181              	.L103:
 1182 0000 FEE7     		b	.L103
 1183              		.cfi_endproc
 1184              	.LFE289:
 1186              		.section	.text.TIM1_UP_IRQHandler,"ax",%progbits
 1187              		.align	1
 1188              		.global	TIM1_UP_IRQHandler
 1189              		.syntax unified
 1190              		.code	16
 1191              		.thumb_func
 1192              		.fpu softvfp
 1194              	TIM1_UP_IRQHandler:
 1195              	.LFB290:
  25:../../src/interrupts.h ****    extern "C" void TIM1_UP_IRQHandler         () { while(1) {} }
 1196              		.loc 6 25 0
 1197              		.cfi_startproc
 1198              		@ Volatile: function does not return.
 1199              		@ args = 0, pretend = 0, frame = 0
 1200              		@ frame_needed = 0, uses_anonymous_args = 0
 1201              		@ link register save eliminated.
 1202              	.L105:
 1203 0000 FEE7     		b	.L105
 1204              		.cfi_endproc
 1205              	.LFE290:
 1207              		.section	.text.TIM1_TRG_COM_IRQHandler,"ax",%progbits
 1208              		.align	1
 1209              		.global	TIM1_TRG_COM_IRQHandler
 1210              		.syntax unified
 1211              		.code	16
 1212              		.thumb_func
 1213              		.fpu softvfp
ARM GAS  /tmp/ccaB5zJT.s 			page 29


 1215              	TIM1_TRG_COM_IRQHandler:
 1216              	.LFB291:
  26:../../src/interrupts.h ****    extern "C" void TIM1_TRG_COM_IRQHandler    () { while(1) {} }
 1217              		.loc 6 26 0
 1218              		.cfi_startproc
 1219              		@ Volatile: function does not return.
 1220              		@ args = 0, pretend = 0, frame = 0
 1221              		@ frame_needed = 0, uses_anonymous_args = 0
 1222              		@ link register save eliminated.
 1223              	.L107:
 1224 0000 FEE7     		b	.L107
 1225              		.cfi_endproc
 1226              	.LFE291:
 1228              		.section	.text.TIM1_CC_IRQHandler,"ax",%progbits
 1229              		.align	1
 1230              		.global	TIM1_CC_IRQHandler
 1231              		.syntax unified
 1232              		.code	16
 1233              		.thumb_func
 1234              		.fpu softvfp
 1236              	TIM1_CC_IRQHandler:
 1237              	.LFB292:
  27:../../src/interrupts.h ****    extern "C" void TIM1_CC_IRQHandler         () { while(1) {} }
 1238              		.loc 6 27 0
 1239              		.cfi_startproc
 1240              		@ Volatile: function does not return.
 1241              		@ args = 0, pretend = 0, frame = 0
 1242              		@ frame_needed = 0, uses_anonymous_args = 0
 1243              		@ link register save eliminated.
 1244              	.L109:
 1245 0000 FEE7     		b	.L109
 1246              		.cfi_endproc
 1247              	.LFE292:
 1249              		.section	.text.TIM2_IRQHandler,"ax",%progbits
 1250              		.align	1
 1251              		.global	TIM2_IRQHandler
 1252              		.syntax unified
 1253              		.code	16
 1254              		.thumb_func
 1255              		.fpu softvfp
 1257              	TIM2_IRQHandler:
 1258              	.LFB293:
  28:../../src/interrupts.h ****    extern "C" void TIM2_IRQHandler            () { while(1) {} }
 1259              		.loc 6 28 0
 1260              		.cfi_startproc
 1261              		@ Volatile: function does not return.
 1262              		@ args = 0, pretend = 0, frame = 0
 1263              		@ frame_needed = 0, uses_anonymous_args = 0
 1264              		@ link register save eliminated.
 1265              	.L111:
 1266 0000 FEE7     		b	.L111
 1267              		.cfi_endproc
 1268              	.LFE293:
 1270              		.section	.text.TIM3_IRQHandler,"ax",%progbits
 1271              		.align	1
 1272              		.global	TIM3_IRQHandler
 1273              		.syntax unified
ARM GAS  /tmp/ccaB5zJT.s 			page 30


 1274              		.code	16
 1275              		.thumb_func
 1276              		.fpu softvfp
 1278              	TIM3_IRQHandler:
 1279              	.LFB294:
  29:../../src/interrupts.h ****    extern "C" void TIM3_IRQHandler            () { while(1) {} }
 1280              		.loc 6 29 0
 1281              		.cfi_startproc
 1282              		@ Volatile: function does not return.
 1283              		@ args = 0, pretend = 0, frame = 0
 1284              		@ frame_needed = 0, uses_anonymous_args = 0
 1285              		@ link register save eliminated.
 1286              	.L113:
 1287 0000 FEE7     		b	.L113
 1288              		.cfi_endproc
 1289              	.LFE294:
 1291              		.section	.text.TIM4_IRQHandler,"ax",%progbits
 1292              		.align	1
 1293              		.global	TIM4_IRQHandler
 1294              		.syntax unified
 1295              		.code	16
 1296              		.thumb_func
 1297              		.fpu softvfp
 1299              	TIM4_IRQHandler:
 1300              	.LFB295:
  30:../../src/interrupts.h ****    extern "C" void TIM4_IRQHandler            () { while(1) {} }
 1301              		.loc 6 30 0
 1302              		.cfi_startproc
 1303              		@ Volatile: function does not return.
 1304              		@ args = 0, pretend = 0, frame = 0
 1305              		@ frame_needed = 0, uses_anonymous_args = 0
 1306              		@ link register save eliminated.
 1307              	.L115:
 1308 0000 FEE7     		b	.L115
 1309              		.cfi_endproc
 1310              	.LFE295:
 1312              		.section	.text.I2C1_EV_IRQHandler,"ax",%progbits
 1313              		.align	1
 1314              		.global	I2C1_EV_IRQHandler
 1315              		.syntax unified
 1316              		.code	16
 1317              		.thumb_func
 1318              		.fpu softvfp
 1320              	I2C1_EV_IRQHandler:
 1321              	.LFB296:
  31:../../src/interrupts.h ****    extern "C" void I2C1_EV_IRQHandler         () { while(1) {} }
 1322              		.loc 6 31 0
 1323              		.cfi_startproc
 1324              		@ Volatile: function does not return.
 1325              		@ args = 0, pretend = 0, frame = 0
 1326              		@ frame_needed = 0, uses_anonymous_args = 0
 1327              		@ link register save eliminated.
 1328              	.L117:
 1329 0000 FEE7     		b	.L117
 1330              		.cfi_endproc
 1331              	.LFE296:
 1333              		.section	.text.I2C1_ER_IRQHandler,"ax",%progbits
ARM GAS  /tmp/ccaB5zJT.s 			page 31


 1334              		.align	1
 1335              		.global	I2C1_ER_IRQHandler
 1336              		.syntax unified
 1337              		.code	16
 1338              		.thumb_func
 1339              		.fpu softvfp
 1341              	I2C1_ER_IRQHandler:
 1342              	.LFB297:
  32:../../src/interrupts.h ****    extern "C" void I2C1_ER_IRQHandler         () { while(1) {} }
 1343              		.loc 6 32 0
 1344              		.cfi_startproc
 1345              		@ Volatile: function does not return.
 1346              		@ args = 0, pretend = 0, frame = 0
 1347              		@ frame_needed = 0, uses_anonymous_args = 0
 1348              		@ link register save eliminated.
 1349              	.L119:
 1350 0000 FEE7     		b	.L119
 1351              		.cfi_endproc
 1352              	.LFE297:
 1354              		.section	.text.I2C2_EV_IRQHandler,"ax",%progbits
 1355              		.align	1
 1356              		.global	I2C2_EV_IRQHandler
 1357              		.syntax unified
 1358              		.code	16
 1359              		.thumb_func
 1360              		.fpu softvfp
 1362              	I2C2_EV_IRQHandler:
 1363              	.LFB298:
  33:../../src/interrupts.h ****    extern "C" void I2C2_EV_IRQHandler         () { while(1) {} }
 1364              		.loc 6 33 0
 1365              		.cfi_startproc
 1366              		@ Volatile: function does not return.
 1367              		@ args = 0, pretend = 0, frame = 0
 1368              		@ frame_needed = 0, uses_anonymous_args = 0
 1369              		@ link register save eliminated.
 1370              	.L121:
 1371 0000 FEE7     		b	.L121
 1372              		.cfi_endproc
 1373              	.LFE298:
 1375              		.section	.text.I2C2_ER_IRQHandler,"ax",%progbits
 1376              		.align	1
 1377              		.global	I2C2_ER_IRQHandler
 1378              		.syntax unified
 1379              		.code	16
 1380              		.thumb_func
 1381              		.fpu softvfp
 1383              	I2C2_ER_IRQHandler:
 1384              	.LFB299:
  34:../../src/interrupts.h ****    extern "C" void I2C2_ER_IRQHandler         () { while(1) {} }
 1385              		.loc 6 34 0
 1386              		.cfi_startproc
 1387              		@ Volatile: function does not return.
 1388              		@ args = 0, pretend = 0, frame = 0
 1389              		@ frame_needed = 0, uses_anonymous_args = 0
 1390              		@ link register save eliminated.
 1391              	.L123:
 1392 0000 FEE7     		b	.L123
ARM GAS  /tmp/ccaB5zJT.s 			page 32


 1393              		.cfi_endproc
 1394              	.LFE299:
 1396              		.section	.text.SPI1_IRQHandler,"ax",%progbits
 1397              		.align	1
 1398              		.global	SPI1_IRQHandler
 1399              		.syntax unified
 1400              		.code	16
 1401              		.thumb_func
 1402              		.fpu softvfp
 1404              	SPI1_IRQHandler:
 1405              	.LFB300:
  35:../../src/interrupts.h ****    extern "C" void SPI1_IRQHandler            () { while(1) {} }
 1406              		.loc 6 35 0
 1407              		.cfi_startproc
 1408              		@ Volatile: function does not return.
 1409              		@ args = 0, pretend = 0, frame = 0
 1410              		@ frame_needed = 0, uses_anonymous_args = 0
 1411              		@ link register save eliminated.
 1412              	.L125:
 1413 0000 FEE7     		b	.L125
 1414              		.cfi_endproc
 1415              	.LFE300:
 1417              		.section	.text.SPI2_IRQHandler,"ax",%progbits
 1418              		.align	1
 1419              		.global	SPI2_IRQHandler
 1420              		.syntax unified
 1421              		.code	16
 1422              		.thumb_func
 1423              		.fpu softvfp
 1425              	SPI2_IRQHandler:
 1426              	.LFB301:
  36:../../src/interrupts.h ****    extern "C" void SPI2_IRQHandler            () { while(1) {} }
 1427              		.loc 6 36 0
 1428              		.cfi_startproc
 1429              		@ Volatile: function does not return.
 1430              		@ args = 0, pretend = 0, frame = 0
 1431              		@ frame_needed = 0, uses_anonymous_args = 0
 1432              		@ link register save eliminated.
 1433              	.L127:
 1434 0000 FEE7     		b	.L127
 1435              		.cfi_endproc
 1436              	.LFE301:
 1438              		.section	.text.EXTI15_10_IRQHandler,"ax",%progbits
 1439              		.align	1
 1440              		.global	EXTI15_10_IRQHandler
 1441              		.syntax unified
 1442              		.code	16
 1443              		.thumb_func
 1444              		.fpu softvfp
 1446              	EXTI15_10_IRQHandler:
 1447              	.LFB302:
  37:../../src/interrupts.h ****    extern "C" void EXTI15_10_IRQHandler       () { while(1) {} }
 1448              		.loc 6 37 0
 1449              		.cfi_startproc
 1450              		@ Volatile: function does not return.
 1451              		@ args = 0, pretend = 0, frame = 0
 1452              		@ frame_needed = 0, uses_anonymous_args = 0
ARM GAS  /tmp/ccaB5zJT.s 			page 33


 1453              		@ link register save eliminated.
 1454              	.L129:
 1455 0000 FEE7     		b	.L129
 1456              		.cfi_endproc
 1457              	.LFE302:
 1459              		.section	.text.RTC_Alarm_IRQHandler,"ax",%progbits
 1460              		.align	1
 1461              		.global	RTC_Alarm_IRQHandler
 1462              		.syntax unified
 1463              		.code	16
 1464              		.thumb_func
 1465              		.fpu softvfp
 1467              	RTC_Alarm_IRQHandler:
 1468              	.LFB303:
  38:../../src/interrupts.h ****    extern "C" void RTC_Alarm_IRQHandler       () { while(1) {} }
 1469              		.loc 6 38 0
 1470              		.cfi_startproc
 1471              		@ Volatile: function does not return.
 1472              		@ args = 0, pretend = 0, frame = 0
 1473              		@ frame_needed = 0, uses_anonymous_args = 0
 1474              		@ link register save eliminated.
 1475              	.L131:
 1476 0000 FEE7     		b	.L131
 1477              		.cfi_endproc
 1478              	.LFE303:
 1480              		.section	.text.USBWakeUp_IRQHandler,"ax",%progbits
 1481              		.align	1
 1482              		.global	USBWakeUp_IRQHandler
 1483              		.syntax unified
 1484              		.code	16
 1485              		.thumb_func
 1486              		.fpu softvfp
 1488              	USBWakeUp_IRQHandler:
 1489              	.LFB304:
  39:../../src/interrupts.h ****    extern "C" void USBWakeUp_IRQHandler       () { while(1) {} }
 1490              		.loc 6 39 0
 1491              		.cfi_startproc
 1492              		@ Volatile: function does not return.
 1493              		@ args = 0, pretend = 0, frame = 0
 1494              		@ frame_needed = 0, uses_anonymous_args = 0
 1495              		@ link register save eliminated.
 1496              	.L133:
 1497 0000 FEE7     		b	.L133
 1498              		.cfi_endproc
 1499              	.LFE304:
 1501              		.section	.text.USART1_IRQHandler,"ax",%progbits
 1502              		.align	1
 1503              		.global	USART1_IRQHandler
 1504              		.syntax unified
 1505              		.code	16
 1506              		.thumb_func
 1507              		.fpu softvfp
 1509              	USART1_IRQHandler:
 1510              	.LFB305:
  40:../../src/interrupts.h **** 
  41:../../src/interrupts.h **** 	extern "C" void USART1_IRQHandler          () { interrupt_usart1.interrupt(); }
 1511              		.loc 6 41 0
ARM GAS  /tmp/ccaB5zJT.s 			page 34


 1512              		.cfi_startproc
 1513              		@ args = 0, pretend = 0, frame = 0
 1514              		@ frame_needed = 0, uses_anonymous_args = 0
 1515              		.loc 6 41 0
 1516 0000 10B5     		push	{r4, lr}
 1517              	.LCFI6:
 1518              		.cfi_def_cfa_offset 8
 1519              		.cfi_offset 4, -8
 1520              		.cfi_offset 14, -4
 1521              		.loc 6 41 0
 1522 0002 0248     		ldr	r0, .L135
 1523 0004 FFF7FEFF 		bl	_ZN9Interrupt9interruptEv
 1524              	.LVL58:
 1525              		@ sp needed
 1526 0008 10BD     		pop	{r4, pc}
 1527              	.L136:
 1528 000a C046     		.align	2
 1529              	.L135:
 1530 000c 00000000 		.word	.LANCHOR1
 1531              		.cfi_endproc
 1532              	.LFE305:
 1534              		.section	.text.USART2_IRQHandler,"ax",%progbits
 1535              		.align	1
 1536              		.global	USART2_IRQHandler
 1537              		.syntax unified
 1538              		.code	16
 1539              		.thumb_func
 1540              		.fpu softvfp
 1542              	USART2_IRQHandler:
 1543              	.LFB306:
  42:../../src/interrupts.h ****    extern "C" void USART2_IRQHandler          () { interrupt_usart2.interrupt(); }
 1544              		.loc 6 42 0
 1545              		.cfi_startproc
 1546              		@ args = 0, pretend = 0, frame = 0
 1547              		@ frame_needed = 0, uses_anonymous_args = 0
 1548 0000 10B5     		push	{r4, lr}
 1549              	.LCFI7:
 1550              		.cfi_def_cfa_offset 8
 1551              		.cfi_offset 4, -8
 1552              		.cfi_offset 14, -4
 1553              		.loc 6 42 0
 1554 0002 0248     		ldr	r0, .L138
 1555 0004 FFF7FEFF 		bl	_ZN9Interrupt9interruptEv
 1556              	.LVL59:
 1557              		@ sp needed
 1558 0008 10BD     		pop	{r4, pc}
 1559              	.L139:
 1560 000a C046     		.align	2
 1561              	.L138:
 1562 000c 00000000 		.word	.LANCHOR2
 1563              		.cfi_endproc
 1564              	.LFE306:
 1566              		.section	.text.USART3_IRQHandler,"ax",%progbits
 1567              		.align	1
 1568              		.global	USART3_IRQHandler
 1569              		.syntax unified
 1570              		.code	16
ARM GAS  /tmp/ccaB5zJT.s 			page 35


 1571              		.thumb_func
 1572              		.fpu softvfp
 1574              	USART3_IRQHandler:
 1575              	.LFB307:
  43:../../src/interrupts.h ****    extern "C" void USART3_IRQHandler          () { interrupt_usart3.interrupt(); }
 1576              		.loc 6 43 0
 1577              		.cfi_startproc
 1578              		@ args = 0, pretend = 0, frame = 0
 1579              		@ frame_needed = 0, uses_anonymous_args = 0
 1580 0000 10B5     		push	{r4, lr}
 1581              	.LCFI8:
 1582              		.cfi_def_cfa_offset 8
 1583              		.cfi_offset 4, -8
 1584              		.cfi_offset 14, -4
 1585              		.loc 6 43 0
 1586 0002 0248     		ldr	r0, .L141
 1587 0004 FFF7FEFF 		bl	_ZN9Interrupt9interruptEv
 1588              	.LVL60:
 1589              		@ sp needed
 1590 0008 10BD     		pop	{r4, pc}
 1591              	.L142:
 1592 000a C046     		.align	2
 1593              	.L141:
 1594 000c 00000000 		.word	.LANCHOR3
 1595              		.cfi_endproc
 1596              	.LFE307:
 1598              		.section	.text.DMA1_Channel1_IRQHandler,"ax",%progbits
 1599              		.align	1
 1600              		.global	DMA1_Channel1_IRQHandler
 1601              		.syntax unified
 1602              		.code	16
 1603              		.thumb_func
 1604              		.fpu softvfp
 1606              	DMA1_Channel1_IRQHandler:
 1607              	.LFB308:
  44:../../src/interrupts.h **** 
  45:../../src/interrupts.h **** 	extern "C" void DMA1_Channel1_IRQHandler   () { interrupt_DMA_channel1.interrupt(); }
 1608              		.loc 6 45 0
 1609              		.cfi_startproc
 1610              		@ args = 0, pretend = 0, frame = 0
 1611              		@ frame_needed = 0, uses_anonymous_args = 0
 1612 0000 10B5     		push	{r4, lr}
 1613              	.LCFI9:
 1614              		.cfi_def_cfa_offset 8
 1615              		.cfi_offset 4, -8
 1616              		.cfi_offset 14, -4
 1617              		.loc 6 45 0
 1618 0002 0248     		ldr	r0, .L144
 1619 0004 FFF7FEFF 		bl	_ZN9Interrupt9interruptEv
 1620              	.LVL61:
 1621              		@ sp needed
 1622 0008 10BD     		pop	{r4, pc}
 1623              	.L145:
 1624 000a C046     		.align	2
 1625              	.L144:
 1626 000c 00000000 		.word	.LANCHOR4
 1627              		.cfi_endproc
ARM GAS  /tmp/ccaB5zJT.s 			page 36


 1628              	.LFE308:
 1630              		.section	.text.DMA1_Channel2_IRQHandler,"ax",%progbits
 1631              		.align	1
 1632              		.global	DMA1_Channel2_IRQHandler
 1633              		.syntax unified
 1634              		.code	16
 1635              		.thumb_func
 1636              		.fpu softvfp
 1638              	DMA1_Channel2_IRQHandler:
 1639              	.LFB309:
  46:../../src/interrupts.h ****    extern "C" void DMA1_Channel2_IRQHandler   () { interrupt_DMA_channel2.interrupt(); }
 1640              		.loc 6 46 0
 1641              		.cfi_startproc
 1642              		@ args = 0, pretend = 0, frame = 0
 1643              		@ frame_needed = 0, uses_anonymous_args = 0
 1644 0000 10B5     		push	{r4, lr}
 1645              	.LCFI10:
 1646              		.cfi_def_cfa_offset 8
 1647              		.cfi_offset 4, -8
 1648              		.cfi_offset 14, -4
 1649              		.loc 6 46 0
 1650 0002 0248     		ldr	r0, .L147
 1651 0004 FFF7FEFF 		bl	_ZN9Interrupt9interruptEv
 1652              	.LVL62:
 1653              		@ sp needed
 1654 0008 10BD     		pop	{r4, pc}
 1655              	.L148:
 1656 000a C046     		.align	2
 1657              	.L147:
 1658 000c 00000000 		.word	.LANCHOR5
 1659              		.cfi_endproc
 1660              	.LFE309:
 1662              		.section	.text.DMA1_Channel3_IRQHandler,"ax",%progbits
 1663              		.align	1
 1664              		.global	DMA1_Channel3_IRQHandler
 1665              		.syntax unified
 1666              		.code	16
 1667              		.thumb_func
 1668              		.fpu softvfp
 1670              	DMA1_Channel3_IRQHandler:
 1671              	.LFB310:
  47:../../src/interrupts.h ****    extern "C" void DMA1_Channel3_IRQHandler   () { interrupt_DMA_channel3.interrupt(); }
 1672              		.loc 6 47 0
 1673              		.cfi_startproc
 1674              		@ args = 0, pretend = 0, frame = 0
 1675              		@ frame_needed = 0, uses_anonymous_args = 0
 1676 0000 10B5     		push	{r4, lr}
 1677              	.LCFI11:
 1678              		.cfi_def_cfa_offset 8
 1679              		.cfi_offset 4, -8
 1680              		.cfi_offset 14, -4
 1681              		.loc 6 47 0
 1682 0002 0248     		ldr	r0, .L150
 1683 0004 FFF7FEFF 		bl	_ZN9Interrupt9interruptEv
 1684              	.LVL63:
 1685              		@ sp needed
 1686 0008 10BD     		pop	{r4, pc}
ARM GAS  /tmp/ccaB5zJT.s 			page 37


 1687              	.L151:
 1688 000a C046     		.align	2
 1689              	.L150:
 1690 000c 00000000 		.word	.LANCHOR6
 1691              		.cfi_endproc
 1692              	.LFE310:
 1694              		.section	.text.DMA1_Channel4_IRQHandler,"ax",%progbits
 1695              		.align	1
 1696              		.global	DMA1_Channel4_IRQHandler
 1697              		.syntax unified
 1698              		.code	16
 1699              		.thumb_func
 1700              		.fpu softvfp
 1702              	DMA1_Channel4_IRQHandler:
 1703              	.LFB311:
  48:../../src/interrupts.h ****    extern "C" void DMA1_Channel4_IRQHandler   () { interrupt_DMA_channel4.interrupt(); }
 1704              		.loc 6 48 0
 1705              		.cfi_startproc
 1706              		@ args = 0, pretend = 0, frame = 0
 1707              		@ frame_needed = 0, uses_anonymous_args = 0
 1708 0000 10B5     		push	{r4, lr}
 1709              	.LCFI12:
 1710              		.cfi_def_cfa_offset 8
 1711              		.cfi_offset 4, -8
 1712              		.cfi_offset 14, -4
 1713              		.loc 6 48 0
 1714 0002 0248     		ldr	r0, .L153
 1715 0004 FFF7FEFF 		bl	_ZN9Interrupt9interruptEv
 1716              	.LVL64:
 1717              		@ sp needed
 1718 0008 10BD     		pop	{r4, pc}
 1719              	.L154:
 1720 000a C046     		.align	2
 1721              	.L153:
 1722 000c 00000000 		.word	.LANCHOR7
 1723              		.cfi_endproc
 1724              	.LFE311:
 1726              		.section	.text.DMA1_Channel5_IRQHandler,"ax",%progbits
 1727              		.align	1
 1728              		.global	DMA1_Channel5_IRQHandler
 1729              		.syntax unified
 1730              		.code	16
 1731              		.thumb_func
 1732              		.fpu softvfp
 1734              	DMA1_Channel5_IRQHandler:
 1735              	.LFB312:
  49:../../src/interrupts.h ****    extern "C" void DMA1_Channel5_IRQHandler   () { interrupt_DMA_channel5.interrupt(); }
 1736              		.loc 6 49 0
 1737              		.cfi_startproc
 1738              		@ args = 0, pretend = 0, frame = 0
 1739              		@ frame_needed = 0, uses_anonymous_args = 0
 1740 0000 10B5     		push	{r4, lr}
 1741              	.LCFI13:
 1742              		.cfi_def_cfa_offset 8
 1743              		.cfi_offset 4, -8
 1744              		.cfi_offset 14, -4
 1745              		.loc 6 49 0
ARM GAS  /tmp/ccaB5zJT.s 			page 38


 1746 0002 0248     		ldr	r0, .L156
 1747 0004 FFF7FEFF 		bl	_ZN9Interrupt9interruptEv
 1748              	.LVL65:
 1749              		@ sp needed
 1750 0008 10BD     		pop	{r4, pc}
 1751              	.L157:
 1752 000a C046     		.align	2
 1753              	.L156:
 1754 000c 00000000 		.word	.LANCHOR8
 1755              		.cfi_endproc
 1756              	.LFE312:
 1758              		.section	.text.DMA1_Channel6_IRQHandler,"ax",%progbits
 1759              		.align	1
 1760              		.global	DMA1_Channel6_IRQHandler
 1761              		.syntax unified
 1762              		.code	16
 1763              		.thumb_func
 1764              		.fpu softvfp
 1766              	DMA1_Channel6_IRQHandler:
 1767              	.LFB313:
  50:../../src/interrupts.h ****    extern "C" void DMA1_Channel6_IRQHandler   () { interrupt_DMA_channel6.interrupt(); }
 1768              		.loc 6 50 0
 1769              		.cfi_startproc
 1770              		@ args = 0, pretend = 0, frame = 0
 1771              		@ frame_needed = 0, uses_anonymous_args = 0
 1772 0000 10B5     		push	{r4, lr}
 1773              	.LCFI14:
 1774              		.cfi_def_cfa_offset 8
 1775              		.cfi_offset 4, -8
 1776              		.cfi_offset 14, -4
 1777              		.loc 6 50 0
 1778 0002 0248     		ldr	r0, .L159
 1779 0004 FFF7FEFF 		bl	_ZN9Interrupt9interruptEv
 1780              	.LVL66:
 1781              		@ sp needed
 1782 0008 10BD     		pop	{r4, pc}
 1783              	.L160:
 1784 000a C046     		.align	2
 1785              	.L159:
 1786 000c 00000000 		.word	.LANCHOR9
 1787              		.cfi_endproc
 1788              	.LFE313:
 1790              		.section	.text.DMA1_Channel7_IRQHandler,"ax",%progbits
 1791              		.align	1
 1792              		.global	DMA1_Channel7_IRQHandler
 1793              		.syntax unified
 1794              		.code	16
 1795              		.thumb_func
 1796              		.fpu softvfp
 1798              	DMA1_Channel7_IRQHandler:
 1799              	.LFB314:
  51:../../src/interrupts.h ****    extern "C" void DMA1_Channel7_IRQHandler   () { interrupt_DMA_channel7.interrupt(); }
 1800              		.loc 6 51 0
 1801              		.cfi_startproc
 1802              		@ args = 0, pretend = 0, frame = 0
 1803              		@ frame_needed = 0, uses_anonymous_args = 0
 1804 0000 10B5     		push	{r4, lr}
ARM GAS  /tmp/ccaB5zJT.s 			page 39


 1805              	.LCFI15:
 1806              		.cfi_def_cfa_offset 8
 1807              		.cfi_offset 4, -8
 1808              		.cfi_offset 14, -4
 1809              		.loc 6 51 0
 1810 0002 0248     		ldr	r0, .L162
 1811 0004 FFF7FEFF 		bl	_ZN9Interrupt9interruptEv
 1812              	.LVL67:
 1813              		@ sp needed
 1814 0008 10BD     		pop	{r4, pc}
 1815              	.L163:
 1816 000a C046     		.align	2
 1817              	.L162:
 1818 000c 00000000 		.word	.LANCHOR10
 1819              		.cfi_endproc
 1820              	.LFE314:
 1822              		.section	.text.init_clock,"ax",%progbits
 1823              		.align	1
 1824              		.global	init_clock
 1825              		.syntax unified
 1826              		.code	16
 1827              		.thumb_func
 1828              		.fpu softvfp
 1830              	init_clock:
 1831              	.LFB331:
 1832              		.file 7 "main.cpp"
   1:main.cpp      **** #define STM32F103xB
   2:main.cpp      **** #define F_OSC   8000000UL
   3:main.cpp      **** #define F_CPU   72000000UL
   4:main.cpp      **** #include "rcc.h"
   5:main.cpp      **** #include "pin.h"
   6:main.cpp      **** // // #include "timers.h"
   7:main.cpp      **** // // #include "pwm.h"
   8:main.cpp      **** #include "uart.h"
   9:main.cpp      **** // #include "fifo.h"
  10:main.cpp      **** # include "modbus_slave.h"
  11:main.cpp      **** 
  12:main.cpp      **** /// —ç—Ç–∞ —Ñ—É–Ω–∫—Ü–∏—è –≤—ã–∑—ã–≤–∞–µ—Ç—å—Å—è –ø–µ—Ä–≤–æ–π –≤ startup —Ñ–∞–π–ª–µ
  13:main.cpp      **** extern "C" void init_clock ()
  14:main.cpp      **** {
 1833              		.loc 7 14 0
 1834              		.cfi_startproc
 1835              		@ args = 0, pretend = 0, frame = 0
 1836              		@ frame_needed = 0, uses_anonymous_args = 0
 1837              		@ link register save eliminated.
  15:main.cpp      ****    // FLASH::set (FLASH::Latency::_1);
  16:main.cpp      **** 
  17:main.cpp      **** //    mcu::make_reference<mcu::Periph::RCC>()
  18:main.cpp      **** //       .set (mcu::RCC:: AHBprescaler::AHBnotdiv)
  19:main.cpp      **** //       .set (mcu::RCC:: APBprescaler::APBnotdiv)
  20:main.cpp      **** //       .set (mcu::RCC::  SystemClock::CS_PLL)
  21:main.cpp      **** //       .set (mcu::RCC::    PLLsource::HSIdiv2)
  22:main.cpp      **** //       .set (mcu::RCC::PLLmultiplier::_12)
  23:main.cpp      **** //       .on_PLL()
  24:main.cpp      **** //       .wait_PLL_ready();
  25:main.cpp      **** }
 1838              		.loc 7 25 0
ARM GAS  /tmp/ccaB5zJT.s 			page 40


 1839              		@ sp needed
 1840 0000 7047     		bx	lr
 1841              		.cfi_endproc
 1842              	.LFE331:
 1844              		.section	.text.startup.main,"ax",%progbits
 1845              		.align	1
 1846              		.global	main
 1847              		.syntax unified
 1848              		.code	16
 1849              		.thumb_func
 1850              		.fpu softvfp
 1852              	main:
 1853              	.LFB332:
  26:main.cpp      **** 
  27:main.cpp      **** 
  28:main.cpp      **** 
  29:main.cpp      **** int main()
  30:main.cpp      **** {
 1854              		.loc 7 30 0
 1855              		.cfi_startproc
 1856              		@ args = 0, pretend = 0, frame = 312
 1857              		@ frame_needed = 0, uses_anonymous_args = 0
 1858              	.LVL68:
 1859              	.LBB424:
 1860              	.LBB425:
 1861              	.LBB426:
 1862              	.LBB427:
 1863              	.LBB428:
 1864              	.LBB429:
 1865              	.LBB430:
 1866              	.LBB431:
 1867              	.LBB432:
 1868              		.file 8 "../../src/periph/f1_rcc.h"
   1:../../src/periph/f1_rcc.h **** #pragma once
   2:../../src/periph/f1_rcc.h **** 
   3:../../src/periph/f1_rcc.h **** #include "f1_bits_rcc.h"
   4:../../src/periph/f1_rcc.h **** 
   5:../../src/periph/f1_rcc.h **** namespace mcu {
   6:../../src/periph/f1_rcc.h **** 
   7:../../src/periph/f1_rcc.h **** class RCC {
   8:../../src/periph/f1_rcc.h ****    __IO RCC_bits::CR      CR;       // RCC clock control register,                offset: 0x00
   9:../../src/periph/f1_rcc.h ****    __IO RCC_bits::CFGR    CFGR;     // RCC clock configuration register,          offset: 0x04
  10:../../src/periph/f1_rcc.h ****    __IO uint32_t          CIR;      // RCC clock interrupt register,              offset: 0x08
  11:../../src/periph/f1_rcc.h ****    __IO uint32_t          APB2RSTR; // RCC APB2 peripheral reset register,        offset: 0x0C
  12:../../src/periph/f1_rcc.h ****    __IO uint32_t          APB1RSTR; // RCC APB1 peripheral reset register,        offset: 0x10
  13:../../src/periph/f1_rcc.h ****    __IO RCC_bits::AHBENR  AHBENR;   // RCC AHB peripheral clock register,         offset: 0x14
  14:../../src/periph/f1_rcc.h ****    __IO RCC_bits::APB2ENR APB2ENR;  // RCC APB2 peripheral clock enable register, offset: 0x18
  15:../../src/periph/f1_rcc.h ****    __IO RCC_bits::APB1ENR APB1ENR;  // RCC APB1 peripheral clock enable register, offset: 0x1C
  16:../../src/periph/f1_rcc.h ****    __IO uint32_t          BDCR;     // RCC Backup domain control register,        offset: 0x20
  17:../../src/periph/f1_rcc.h ****    __IO uint32_t          CSR;      // RCC clock control & status register,       offset: 0x24
  18:../../src/periph/f1_rcc.h **** 
  19:../../src/periph/f1_rcc.h **** public:
  20:../../src/periph/f1_rcc.h ****    using CMSIS_type    = RCC_TypeDef;
  21:../../src/periph/f1_rcc.h ****    using AHBprescaler  = RCC_bits::CFGR::AHBprescaler;
  22:../../src/periph/f1_rcc.h ****    using APBprescaler  = RCC_bits::CFGR::APBprescaler;
  23:../../src/periph/f1_rcc.h ****    using ADCprescaler  = RCC_bits::CFGR::ADCprescaler;
  24:../../src/periph/f1_rcc.h ****    using SystemClock   = RCC_bits::CFGR::SystemClock;
ARM GAS  /tmp/ccaB5zJT.s 			page 41


  25:../../src/periph/f1_rcc.h ****    using PLLsource     = RCC_bits::CFGR::PLLsource;
  26:../../src/periph/f1_rcc.h ****    using PLLmultiplier = RCC_bits::CFGR::PLLmultiplier;
  27:../../src/periph/f1_rcc.h **** 
  28:../../src/periph/f1_rcc.h ****    RCC& set       (AHBprescaler  v) { CFGR.HPRE   = v; return *this; }
  29:../../src/periph/f1_rcc.h ****    RCC& set_APB1  (APBprescaler  v) { CFGR.PPRE1  = v; return *this; }
  30:../../src/periph/f1_rcc.h ****    RCC& set_APB2  (APBprescaler  v) { CFGR.PPRE2  = v; return *this; }
  31:../../src/periph/f1_rcc.h ****    RCC& set       (ADCprescaler  v) { CFGR.ADCPRE = v; return *this; }
  32:../../src/periph/f1_rcc.h ****    RCC& set       (SystemClock   v) { CFGR.SW     = v; return *this; }
  33:../../src/periph/f1_rcc.h ****    RCC& set       (PLLsource     v) { CFGR.PLLSRC = v; return *this; }
  34:../../src/periph/f1_rcc.h ****    RCC& set       (PLLmultiplier v) { CFGR.PLLMUL = v; return *this; }
  35:../../src/periph/f1_rcc.h **** 
  36:../../src/periph/f1_rcc.h ****    RCC& on_HSE        () { CR.HSEON = true;         return *this; }
  37:../../src/periph/f1_rcc.h ****    RCC& wait_HSE_ready() { while (not CR.HSERDY) {} return *this; }
  38:../../src/periph/f1_rcc.h ****    RCC& on_PLL        () { CR.PLLON = true;         return *this; }
  39:../../src/periph/f1_rcc.h ****    RCC& wait_PLL_ready() { while (not CR.PLLRDY) {} return *this; }
  40:../../src/periph/f1_rcc.h **** 
  41:../../src/periph/f1_rcc.h ****    size_t get_APB_clock (APBprescaler v)
  42:../../src/periph/f1_rcc.h ****    {return v == APBprescaler::APBnotdiv ? F_CPU     :
  43:../../src/periph/f1_rcc.h ****            v == APBprescaler::APBdiv2   ? F_CPU / 2 :
  44:../../src/periph/f1_rcc.h ****            v == APBprescaler::APBdiv4   ? F_CPU / 4 :
  45:../../src/periph/f1_rcc.h ****            v == APBprescaler::APBdiv8   ? F_CPU / 8 :
  46:../../src/periph/f1_rcc.h ****                                           F_CPU / 16;}
  47:../../src/periph/f1_rcc.h **** 
  48:../../src/periph/f1_rcc.h ****    size_t get_APB1_clock(){return get_APB_clock (CFGR.PPRE1);}
  49:../../src/periph/f1_rcc.h ****    size_t get_APB2_clock(){return get_APB_clock (CFGR.PPRE2);}
  50:../../src/periph/f1_rcc.h **** 
  51:../../src/periph/f1_rcc.h **** 
  52:../../src/periph/f1_rcc.h **** 
  53:../../src/periph/f1_rcc.h ****    template<Periph p> void clock_enable()
  54:../../src/periph/f1_rcc.h ****    {
  55:../../src/periph/f1_rcc.h ****       if      constexpr (p == Periph::GPIOA) APB2ENR.IOPAEN = true;
 1869              		.loc 8 55 0
 1870 0000 0422     		movs	r2, #4
 1871              	.LBE432:
 1872              	.LBE431:
 1873              	.LBE430:
 1874              	.LBE429:
 1875              	.LBE428:
 1876              	.LBE427:
 1877              	.LBE426:
 1878              	.LBE425:
 1879              	.LBE424:
 1880              		.loc 7 30 0
 1881 0002 F0B5     		push	{r4, r5, r6, r7, lr}
 1882              	.LCFI16:
 1883              		.cfi_def_cfa_offset 20
 1884              		.cfi_offset 4, -20
 1885              		.cfi_offset 5, -16
 1886              		.cfi_offset 6, -12
 1887              		.cfi_offset 7, -8
 1888              		.cfi_offset 14, -4
 1889              	.LBB601:
 1890              	.LBB598:
 1891              	.LBB595:
 1892              	.LBB592:
 1893              	.LBB454:
 1894              	.LBB451:
ARM GAS  /tmp/ccaB5zJT.s 			page 42


 1895              	.LBB437:
 1896              	.LBB438:
 1897              	.LBB439:
 1898              	.LBB440:
  56:../../src/periph/f1_rcc.h ****       else if constexpr (p == Periph::GPIOB) APB2ENR.IOPBEN = true;
  57:../../src/periph/f1_rcc.h ****       else if constexpr (p == Periph::GPIOC) APB2ENR.IOPCEN = true;
  58:../../src/periph/f1_rcc.h ****       else if constexpr (p == Periph::GPIOD) APB2ENR.IOPDEN = true;
  59:../../src/periph/f1_rcc.h ****       else if constexpr (p == Periph::GPIOE) APB2ENR.IOPEEN = true;
  60:../../src/periph/f1_rcc.h ****       else if constexpr (p == Periph::AFIO ) APB2ENR.AFIOEN = true;
 1899              		.loc 8 60 0
 1900 0004 0124     		movs	r4, #1
 1901              	.LBE440:
 1902              	.LBE439:
 1903              	.LBE438:
 1904              	.LBB443:
 1905              	.LBB444:
 1906              		.file 9 "../../src/periph/f1_gpio.h"
   1:../../src/periph/f1_gpio.h **** #pragma once
   2:../../src/periph/f1_gpio.h **** 
   3:../../src/periph/f1_gpio.h **** #include "f1_bits_gpio.h"
   4:../../src/periph/f1_gpio.h **** #include "rcc.h"
   5:../../src/periph/f1_gpio.h **** #include "f1_afio.h"
   6:../../src/periph/f1_gpio.h **** #include "pins.h"
   7:../../src/periph/f1_gpio.h **** 
   8:../../src/periph/f1_gpio.h **** namespace mcu {
   9:../../src/periph/f1_gpio.h **** 
  10:../../src/periph/f1_gpio.h **** enum class PinMode {Input, Output, USART1_TX, USART1_RX, USART2_TX, USART2_RX, USART3_TX, USART3_RX
  11:../../src/periph/f1_gpio.h **** 
  12:../../src/periph/f1_gpio.h **** class GPIO {
  13:../../src/periph/f1_gpio.h ****   __IO GPIO_bits::CR CR;   // Port configuration register      offset: 0x00
  14:../../src/periph/f1_gpio.h ****   __IO GPIO_bits::DR IDR;  // Port input data register         offset: 0x08
  15:../../src/periph/f1_gpio.h ****   __IO GPIO_bits::DR ODR;  // Port output data register        offset: 0x0C
  16:../../src/periph/f1_gpio.h ****   __IO uint32_t      BSRR; // Port bit set/reset register      offset: 0x10
  17:../../src/periph/f1_gpio.h ****   __IO uint32_t      BRR;  // Port bit reset register          offset: 0x14
  18:../../src/periph/f1_gpio.h ****   __IO uint32_t      LCKR; // Port configuration lock register offset: 0x18
  19:../../src/periph/f1_gpio.h **** 
  20:../../src/periph/f1_gpio.h **** public:
  21:../../src/periph/f1_gpio.h ****    using CMSIS_type = GPIO_TypeDef;
  22:../../src/periph/f1_gpio.h ****    using Mode       = GPIO_bits::CR::Mode;
  23:../../src/periph/f1_gpio.h ****    using Remap      = AFIO::Remap;
  24:../../src/periph/f1_gpio.h **** 
  25:../../src/periph/f1_gpio.h ****    template<Periph p, Periph v = Periph::RCC> GPIO& clock_enable() { make_reference<v>().template c
  26:../../src/periph/f1_gpio.h **** 
  27:../../src/periph/f1_gpio.h ****    void set     (size_t n) { BSRR |= (1 << n);              }
  28:../../src/periph/f1_gpio.h ****    void clear   (size_t n) { BSRR |= (1 << (n + 16));       }
  29:../../src/periph/f1_gpio.h ****    bool is_set  (size_t n) { return IDR.reg & (1 << n);     }
  30:../../src/periph/f1_gpio.h ****    void toggle  (size_t n) { is_set(n) ? clear(n) : set(n); }
  31:../../src/periph/f1_gpio.h **** 
  32:../../src/periph/f1_gpio.h ****    template<size_t> GPIO& set (Mode);
  33:../../src/periph/f1_gpio.h ****    template<class Pin_, PinMode, Periph rcc = Periph::RCC, Periph afio = Periph::AFIO> void init();
  34:../../src/periph/f1_gpio.h **** };
  35:../../src/periph/f1_gpio.h **** 
  36:../../src/periph/f1_gpio.h **** template<Periph gpio> std::enable_if_t<gpio == Periph::GPIOA, GPIO&> make_reference() { return *rei
  37:../../src/periph/f1_gpio.h **** template<Periph gpio> std::enable_if_t<gpio == Periph::GPIOB, GPIO&> make_reference() { return *rei
  38:../../src/periph/f1_gpio.h **** template<Periph gpio> std::enable_if_t<gpio == Periph::GPIOC, GPIO&> make_reference() { return *rei
  39:../../src/periph/f1_gpio.h **** template<Periph gpio> std::enable_if_t<gpio == Periph::GPIOD, GPIO&> make_reference() { return *rei
  40:../../src/periph/f1_gpio.h **** template<Periph gpio> std::enable_if_t<gpio == Periph::GPIOE, GPIO&> make_reference() { return *rei
ARM GAS  /tmp/ccaB5zJT.s 			page 43


  41:../../src/periph/f1_gpio.h **** 
  42:../../src/periph/f1_gpio.h **** 
  43:../../src/periph/f1_gpio.h **** 
  44:../../src/periph/f1_gpio.h **** 
  45:../../src/periph/f1_gpio.h **** 
  46:../../src/periph/f1_gpio.h **** 
  47:../../src/periph/f1_gpio.h **** 
  48:../../src/periph/f1_gpio.h **** 
  49:../../src/periph/f1_gpio.h **** 
  50:../../src/periph/f1_gpio.h **** 
  51:../../src/periph/f1_gpio.h **** 
  52:../../src/periph/f1_gpio.h **** 
  53:../../src/periph/f1_gpio.h **** 
  54:../../src/periph/f1_gpio.h **** 
  55:../../src/periph/f1_gpio.h **** 
  56:../../src/periph/f1_gpio.h **** 
  57:../../src/periph/f1_gpio.h **** 
  58:../../src/periph/f1_gpio.h **** 
  59:../../src/periph/f1_gpio.h **** 
  60:../../src/periph/f1_gpio.h **** template<size_t n> GPIO& GPIO::set (Mode v) 
  61:../../src/periph/f1_gpio.h **** {
  62:../../src/periph/f1_gpio.h ****    if      constexpr (n == 0)  { CR.CNF_MODE0  = v; return *this; }
  63:../../src/periph/f1_gpio.h ****    else if constexpr (n == 1)  { CR.CNF_MODE1  = v; return *this; }
  64:../../src/periph/f1_gpio.h ****    else if constexpr (n == 2)  { CR.CNF_MODE2  = v; return *this; }
  65:../../src/periph/f1_gpio.h ****    else if constexpr (n == 3)  { CR.CNF_MODE3  = v; return *this; }
  66:../../src/periph/f1_gpio.h ****    else if constexpr (n == 4)  { CR.CNF_MODE4  = v; return *this; }
  67:../../src/periph/f1_gpio.h ****    else if constexpr (n == 5)  { CR.CNF_MODE5  = v; return *this; }
  68:../../src/periph/f1_gpio.h ****    else if constexpr (n == 6)  { CR.CNF_MODE6  = v; return *this; }
  69:../../src/periph/f1_gpio.h ****    else if constexpr (n == 7)  { CR.CNF_MODE7  = v; return *this; }
  70:../../src/periph/f1_gpio.h ****    else if constexpr (n == 8)  { CR.CNF_MODE8  = v; return *this; }
  71:../../src/periph/f1_gpio.h ****    else if constexpr (n == 9)  { CR.CNF_MODE9  = v; return *this; }
 1907              		.loc 9 71 0
 1908 0006 F025     		movs	r5, #240
 1909 0008 A021     		movs	r1, #160
 1910              	.LBE444:
 1911              	.LBE443:
 1912              	.LBE437:
 1913              	.LBE451:
 1914              	.LBE454:
 1915              	.LBB455:
 1916              	.LBB456:
 1917              	.LBB457:
  49:../../src/periph/f1_rcc.h **** 
 1918              		.loc 8 49 0
 1919 000a 4748     		ldr	r0, .L166
 1920              	.LBE457:
 1921              	.LBE456:
 1922              	.LBE455:
 1923              	.LBB460:
 1924              	.LBB461:
 1925              	.LBB462:
 1926              	.LBB463:
 1927              	.LBB464:
  72:../../src/periph/f1_gpio.h ****    else if constexpr (n == 10) { CR.CNF_MODE10 = v; return *this; }
 1928              		.loc 9 72 0
 1929 000c 474F     		ldr	r7, .L166+4
 1930              	.LBE464:
ARM GAS  /tmp/ccaB5zJT.s 			page 44


 1931              	.LBE463:
 1932              	.LBE462:
 1933              	.LBE461:
 1934              	.LBE460:
 1935              	.LBB475:
 1936              	.LBB459:
 1937              	.LBB458:
  49:../../src/periph/f1_rcc.h **** 
 1938              		.loc 8 49 0
 1939 000e 4368     		ldr	r3, [r0, #4]
 1940              	.LVL69:
 1941              	.LBE458:
 1942              	.LBE459:
 1943              	.LBE475:
 1944              	.LBB476:
 1945              	.LBB452:
 1946              	.LBB448:
 1947              	.LBB435:
 1948              	.LBB433:
  55:../../src/periph/f1_rcc.h ****       else if constexpr (p == Periph::GPIOB) APB2ENR.IOPBEN = true;
 1949              		.loc 8 55 0
 1950 0010 8369     		ldr	r3, [r0, #24]
 1951              	.LBE433:
 1952              	.LBE435:
 1953              	.LBE448:
 1954              	.LBE452:
 1955              	.LBE476:
 1956              	.LBE592:
 1957              	.LBE595:
 1958              	.LBE598:
 1959              	.LBE601:
 1960              		.loc 7 30 0
 1961 0012 CFB0     		sub	sp, sp, #316
 1962              	.LCFI17:
 1963              		.cfi_def_cfa_offset 336
 1964              	.LBB602:
 1965              	.LBB599:
 1966              	.LBB596:
 1967              	.LBB593:
 1968              	.LBB477:
 1969              	.LBB453:
 1970              	.LBB449:
 1971              	.LBB436:
 1972              	.LBB434:
  55:../../src/periph/f1_rcc.h ****       else if constexpr (p == Periph::GPIOB) APB2ENR.IOPBEN = true;
 1973              		.loc 8 55 0
 1974 0014 1343     		orrs	r3, r2
 1975 0016 8361     		str	r3, [r0, #24]
 1976              	.LVL70:
 1977              	.LBE434:
 1978              	.LBE436:
 1979              	.LBE449:
 1980              	.LBB450:
 1981              	.LBB446:
 1982              	.LBB442:
 1983              	.LBB441:
 1984              		.loc 8 60 0
ARM GAS  /tmp/ccaB5zJT.s 			page 45


 1985 0018 8369     		ldr	r3, [r0, #24]
 1986 001a 2343     		orrs	r3, r4
 1987 001c 8361     		str	r3, [r0, #24]
 1988              	.LVL71:
 1989              	.LBE441:
 1990              	.LBE442:
 1991              	.LBE446:
 1992              	.LBB447:
 1993              	.LBB445:
  71:../../src/periph/f1_gpio.h ****    else if constexpr (n == 10) { CR.CNF_MODE10 = v; return *this; }
 1994              		.loc 9 71 0
 1995 001e 444B     		ldr	r3, .L166+8
 1996 0020 5E68     		ldr	r6, [r3, #4]
 1997 0022 AE43     		bics	r6, r5
 1998 0024 3143     		orrs	r1, r6
 1999 0026 5960     		str	r1, [r3, #4]
 2000              	.LVL72:
 2001              	.LBE445:
 2002              	.LBE447:
 2003              	.LBE450:
 2004              	.LBE453:
 2005              	.LBE477:
 2006              	.LBB478:
 2007              	.LBB474:
 2008              	.LBB470:
 2009              	.LBB471:
 2010              	.LBB472:
  55:../../src/periph/f1_rcc.h ****       else if constexpr (p == Periph::GPIOB) APB2ENR.IOPBEN = true;
 2011              		.loc 8 55 0
 2012 0028 8169     		ldr	r1, [r0, #24]
 2013 002a 1143     		orrs	r1, r2
 2014 002c 8161     		str	r1, [r0, #24]
 2015              	.LVL73:
 2016              	.LBE472:
 2017              	.LBE471:
 2018              	.LBE470:
 2019              	.LBB473:
 2020              	.LBB466:
 2021              	.LBB467:
 2022              	.LBB468:
 2023              		.loc 8 60 0
 2024 002e 8169     		ldr	r1, [r0, #24]
 2025 0030 2143     		orrs	r1, r4
 2026 0032 8161     		str	r1, [r0, #24]
 2027              	.LVL74:
 2028              	.LBE468:
 2029              	.LBE467:
 2030              	.LBE466:
 2031              	.LBB469:
 2032              	.LBB465:
 2033              		.loc 9 72 0
 2034 0034 A021     		movs	r1, #160
 2035 0036 5E68     		ldr	r6, [r3, #4]
 2036 0038 0901     		lsls	r1, r1, #4
 2037 003a 3E40     		ands	r6, r7
 2038 003c 3143     		orrs	r1, r6
 2039 003e 5960     		str	r1, [r3, #4]
ARM GAS  /tmp/ccaB5zJT.s 			page 46


 2040              	.LVL75:
 2041              	.LBE465:
 2042              	.LBE469:
 2043              	.LBE473:
 2044              	.LBE474:
 2045              	.LBE478:
 2046              	.LBB479:
 2047              	.LBB480:
 2048              	.LBB481:
 2049              	.LBB482:
 2050              	.LBB483:
  56:../../src/periph/f1_rcc.h ****       else if constexpr (p == Periph::GPIOC) APB2ENR.IOPCEN = true;
 2051              		.loc 8 56 0
 2052 0040 0821     		movs	r1, #8
 2053 0042 8369     		ldr	r3, [r0, #24]
 2054              	.LBE483:
 2055              	.LBE482:
 2056              	.LBE481:
 2057              	.LBB486:
 2058              	.LBB487:
 2059              	.LBB488:
  63:../../src/periph/f1_gpio.h ****    else if constexpr (n == 2)  { CR.CNF_MODE2  = v; return *this; }
 2060              		.loc 9 63 0
 2061 0044 3B4E     		ldr	r6, .L166+12
 2062              	.LBE488:
 2063              	.LBE487:
 2064              	.LBE486:
 2065              	.LBB491:
 2066              	.LBB485:
 2067              	.LBB484:
  56:../../src/periph/f1_rcc.h ****       else if constexpr (p == Periph::GPIOC) APB2ENR.IOPCEN = true;
 2068              		.loc 8 56 0
 2069 0046 0B43     		orrs	r3, r1
 2070 0048 8361     		str	r3, [r0, #24]
 2071              	.LVL76:
 2072              	.LBE484:
 2073              	.LBE485:
 2074              	.LBE491:
 2075              	.LBB492:
 2076              	.LBB490:
 2077              	.LBB489:
  63:../../src/periph/f1_gpio.h ****    else if constexpr (n == 2)  { CR.CNF_MODE2  = v; return *this; }
 2078              		.loc 9 63 0
 2079 004a 3368     		ldr	r3, [r6]
 2080 004c AB43     		bics	r3, r5
 2081 004e D03D     		subs	r5, r5, #208
 2082 0050 2B43     		orrs	r3, r5
 2083 0052 3360     		str	r3, [r6]
 2084              	.LVL77:
 2085              	.LBE489:
 2086              	.LBE490:
 2087              	.LBE492:
 2088              	.LBE480:
 2089              	.LBE479:
 2090              	.LBB493:
 2091              	.LBB494:
 2092              	.LBB495:
ARM GAS  /tmp/ccaB5zJT.s 			page 47


 2093              	.LBB496:
 2094              	.LBB497:
  56:../../src/periph/f1_rcc.h ****       else if constexpr (p == Periph::GPIOC) APB2ENR.IOPCEN = true;
 2095              		.loc 8 56 0
 2096 0054 8369     		ldr	r3, [r0, #24]
 2097 0056 0B43     		orrs	r3, r1
 2098 0058 8361     		str	r3, [r0, #24]
 2099              	.LVL78:
 2100              	.LBE497:
 2101              	.LBE496:
 2102              	.LBE495:
 2103              	.LBB498:
 2104              	.LBB499:
 2105              	.LBB500:
  64:../../src/periph/f1_gpio.h ****    else if constexpr (n == 3)  { CR.CNF_MODE3  = v; return *this; }
 2106              		.loc 9 64 0
 2107 005a 3368     		ldr	r3, [r6]
 2108 005c 3B40     		ands	r3, r7
 2109 005e 8027     		movs	r7, #128
 2110 0060 BF00     		lsls	r7, r7, #2
 2111 0062 1F43     		orrs	r7, r3
 2112 0064 3760     		str	r7, [r6]
 2113              	.LVL79:
 2114              	.LBE500:
 2115              	.LBE499:
 2116              	.LBE498:
 2117              	.LBE494:
 2118              	.LBE493:
 2119              	.LBB501:
 2120              	.LBB502:
 2121              	.LBB503:
  61:../../src/periph/f1_rcc.h **** 
  62:../../src/periph/f1_rcc.h ****       else if constexpr (p == Periph::USART1) APB2ENR.USART1EN = true;
 2122              		.loc 8 62 0
 2123 0066 8027     		movs	r7, #128
 2124              	.LBE503:
 2125              	.LBE502:
 2126              	.LBE501:
 2127              	.LBB506:
 2128              	.LBB507:
 2129              	.LBB508:
 2130              		.file 10 "../../src/uart.h"
   1:../../src/uart.h **** #pragma once
   2:../../src/uart.h **** 
   3:../../src/uart.h **** #if not defined (TEST)
   4:../../src/uart.h **** 	#include "usart.h"
   5:../../src/uart.h **** #endif
   6:../../src/uart.h **** namespace mcu {
   7:../../src/uart.h **** 
   8:../../src/uart.h **** template<size_t buffer_size = 255>
   9:../../src/uart.h **** class UART_ {
  10:../../src/uart.h ****    USART& usart;
  11:../../src/uart.h ****    DMA_stream& TXstream;
  12:../../src/uart.h ****    DMA_stream& RXstream;
  13:../../src/uart.h ****    const size_t clock;
  14:../../src/uart.h ****    Pin tx;
  15:../../src/uart.h ****    Pin rx;
ARM GAS  /tmp/ccaB5zJT.s 			page 48


  16:../../src/uart.h ****    Pin rts;
  17:../../src/uart.h ****    Pin led;
  18:../../src/uart.h ****    uint8_t buffer[buffer_size];
  19:../../src/uart.h ****    int begin {0};
  20:../../src/uart.h ****    int end   {0};
  21:../../src/uart.h **** public:
  22:../../src/uart.h **** 
  23:../../src/uart.h ****    using Parity         = USART::Parity;
  24:../../src/uart.h ****    using WakeMethod     = USART::WakeMethod;
  25:../../src/uart.h ****    using DataBits       = USART::DataBits;
  26:../../src/uart.h ****    using BreakDetection = USART::BreakDetection;
  27:../../src/uart.h ****    using StopBits       = USART::StopBits;
  28:../../src/uart.h ****    using Baudrate       = USART::Baudrate;
  29:../../src/uart.h ****    using DataSize       = DMA_stream::DataSize;
  30:../../src/uart.h ****    using Priority       = DMA_stream::Priority;
  31:../../src/uart.h ****    using DataDirection  = DMA_stream::DataDirection;
  32:../../src/uart.h **** 
  33:../../src/uart.h ****    UART_ (
  34:../../src/uart.h ****         USART& usart
  35:../../src/uart.h ****       , DMA_stream& TXstream
  36:../../src/uart.h ****       , DMA_stream& RXstream
  37:../../src/uart.h ****       , size_t clock
  38:../../src/uart.h ****       , Pin tx
  39:../../src/uart.h ****       , Pin rx
  40:../../src/uart.h ****       , Pin rts
  41:../../src/uart.h ****       , Pin led
  42:../../src/uart.h ****    )  : usart    {usart}
  43:../../src/uart.h ****       , TXstream {TXstream}
  44:../../src/uart.h ****       , RXstream {RXstream}
  45:../../src/uart.h ****       , clock    {clock}
  46:../../src/uart.h ****       , tx       {tx}
  47:../../src/uart.h ****       , rx       {rx}
  48:../../src/uart.h ****       , rts      {rts}
  49:../../src/uart.h ****       , led      {led}
 2131              		.loc 10 49 0
 2132 0068 334E     		ldr	r6, .L166+16
 2133 006a 344B     		ldr	r3, .L166+20
 2134 006c 0196     		str	r6, [sp, #4]
 2135 006e 344E     		ldr	r6, .L166+24
 2136 0070 0093     		str	r3, [sp]
 2137 0072 0296     		str	r6, [sp, #8]
 2138              	.LVL80:
 2139              	.LBE508:
 2140              	.LBE507:
 2141              	.LBE506:
 2142              	.LBB509:
 2143              	.LBB505:
 2144              	.LBB504:
 2145              		.loc 8 62 0
 2146 0074 8669     		ldr	r6, [r0, #24]
 2147 0076 FF01     		lsls	r7, r7, #7
 2148 0078 3E43     		orrs	r6, r7
 2149 007a 8661     		str	r6, [r0, #24]
 2150              	.LVL81:
 2151              	.LBE504:
 2152              	.LBE505:
 2153              	.LBE509:
ARM GAS  /tmp/ccaB5zJT.s 			page 49


 2154              	.LBB510:
 2155              	.LBB511:
 2156              		.file 11 "../../src/periph/f1_usart.h"
   1:../../src/periph/f1_usart.h **** #pragma once
   2:../../src/periph/f1_usart.h **** 
   3:../../src/periph/f1_usart.h **** #include <type_traits>
   4:../../src/periph/f1_usart.h **** #include "f1_bits_usart.h"
   5:../../src/periph/f1_usart.h **** #include "rcc.h"
   6:../../src/periph/f1_usart.h **** #include "pin.h"
   7:../../src/periph/f1_usart.h **** #include "dma.h"
   8:../../src/periph/f1_usart.h **** 
   9:../../src/periph/f1_usart.h **** namespace mcu {
  10:../../src/periph/f1_usart.h **** 
  11:../../src/periph/f1_usart.h **** class USART_default
  12:../../src/periph/f1_usart.h **** {
  13:../../src/periph/f1_usart.h **** public:
  14:../../src/periph/f1_usart.h ****    __IO USART_bits::SR  SR;   // USART Status register,                   offset: 0x00
  15:../../src/periph/f1_usart.h ****    __IO uint32_t        DR;   // USART Data register,                     offset: 0x04
  16:../../src/periph/f1_usart.h ****    __IO uint32_t        BRR;  // USART Baud rate register,                offset: 0x08
  17:../../src/periph/f1_usart.h ****    __IO USART_bits::CR1 CR1;  // USART Control register 1,                offset: 0x0C
  18:../../src/periph/f1_usart.h ****    __IO USART_bits::CR2 CR2;  // USART Control register 2,                offset: 0x10
  19:../../src/periph/f1_usart.h ****    __IO USART_bits::CR3 CR3;  // USART Control register 3,                offset: 0x14
  20:../../src/periph/f1_usart.h ****    __IO uint32_t        GTPR; // USART Guard time and prescaler register, offset: 0x18
  21:../../src/periph/f1_usart.h ****    // this thing for test
  22:../../src/periph/f1_usart.h ****    auto read_SR() { return *reinterpret_cast<__IO uint32_t*>(&SR); }
  23:../../src/periph/f1_usart.h **** };
  24:../../src/periph/f1_usart.h **** 
  25:../../src/periph/f1_usart.h **** template<class R = USART_default>
  26:../../src/periph/f1_usart.h **** class USART_ : private R {
  27:../../src/periph/f1_usart.h **** public:
  28:../../src/periph/f1_usart.h **** 
  29:../../src/periph/f1_usart.h ****    using CMSIS_type     = USART_TypeDef;
  30:../../src/periph/f1_usart.h ****    using Parity         = USART_bits::CR1::Parity;
  31:../../src/periph/f1_usart.h ****    using WakeMethod     = USART_bits::CR1::WakeMethod;
  32:../../src/periph/f1_usart.h ****    using DataBits       = USART_bits::CR1::DataBits;
  33:../../src/periph/f1_usart.h ****    using BreakDetection = USART_bits::CR2::BreakDetection;
  34:../../src/periph/f1_usart.h ****    using StopBits       = USART_bits::CR2::StopBits;
  35:../../src/periph/f1_usart.h **** 
  36:../../src/periph/f1_usart.h ****    enum Baudrate {
  37:../../src/periph/f1_usart.h ****       BR9600   = 0b000,
  38:../../src/periph/f1_usart.h ****       BR14400  = 0b001,
  39:../../src/periph/f1_usart.h ****       BR19200  = 0b010,
  40:../../src/periph/f1_usart.h ****       BR28800  = 0b011,
  41:../../src/periph/f1_usart.h ****       BR38400  = 0b100,
  42:../../src/periph/f1_usart.h ****       BR57600  = 0b101,
  43:../../src/periph/f1_usart.h ****       BR76800  = 0b110,
  44:../../src/periph/f1_usart.h ****       BR115200 = 0b111
  45:../../src/periph/f1_usart.h ****    };
  46:../../src/periph/f1_usart.h **** 
  47:../../src/periph/f1_usart.h ****    USART_& set (Parity         v)         {this->CR1.PS    = v; return *this;}
  48:../../src/periph/f1_usart.h ****    USART_& set (WakeMethod     v)         {this->CR1.WAKE  = v; return *this;}
  49:../../src/periph/f1_usart.h ****    USART_& set (DataBits       v)         {this->CR1.M     = v; return *this;}
  50:../../src/periph/f1_usart.h ****    USART_& set (BreakDetection v)         {this->CR2.LBDL  = v; return *this;}
  51:../../src/periph/f1_usart.h ****    USART_& set (StopBits       v)         {this->CR2.STOP  = v; return *this;}
  52:../../src/periph/f1_usart.h ****    USART_& send_byte (uint8_t  v)         {this->DR = v;        return *this;}
  53:../../src/periph/f1_usart.h ****    USART_& set (Baudrate, size_t);
  54:../../src/periph/f1_usart.h **** 
ARM GAS  /tmp/ccaB5zJT.s 			page 50


  55:../../src/periph/f1_usart.h ****    template <Periph usart, Periph rcc = Periph::RCC>
  56:../../src/periph/f1_usart.h ****    USART_& clock_enable  (){make_reference<rcc>().template clock_enable<usart>(); return *this;}
  57:../../src/periph/f1_usart.h ****    USART_& enable        (){this->CR1.UE   = true;  return *this;}
  58:../../src/periph/f1_usart.h ****    USART_& disable       (){this->CR1.UE   = false; return *this;}
  59:../../src/periph/f1_usart.h ****    USART_& rx_enable     (){this->CR1.RE   = true;  return *this;}
  60:../../src/periph/f1_usart.h ****    USART_& rx_disable    (){this->CR1.RE   = false; return *this;}
  61:../../src/periph/f1_usart.h ****    USART_& tx_enable     (){this->CR1.TE   = true;  return *this;}
 2157              		.loc 11 61 0
 2158 007c DE68     		ldr	r6, [r3, #12]
 2159 007e 3143     		orrs	r1, r6
 2160 0080 D960     		str	r1, [r3, #12]
 2161              	.LBE511:
 2162              	.LBE510:
 2163              	.LBB512:
 2164              	.LBB513:
  59:../../src/periph/f1_usart.h ****    USART_& rx_disable    (){this->CR1.RE   = false; return *this;}
 2165              		.loc 11 59 0
 2166 0082 D968     		ldr	r1, [r3, #12]
 2167 0084 0A43     		orrs	r2, r1
 2168 0086 DA60     		str	r2, [r3, #12]
 2169              	.LBE513:
 2170              	.LBE512:
 2171              	.LBB514:
 2172              	.LBB515:
  62:../../src/periph/f1_usart.h ****    USART_& tx_disable    (){this->CR1.TE   = false; return *this;}
  63:../../src/periph/f1_usart.h ****    USART_& rts_enable    (){this->CR3.RTSE = true;  return *this;}
  64:../../src/periph/f1_usart.h ****    USART_& rts_disable   (){this->CR3.RTSE = false; return *this;}
  65:../../src/periph/f1_usart.h ****    USART_& DMA_tx_enable (){this->CR3.DMAT = true;  return *this;}
 2173              		.loc 11 65 0
 2174 0088 8022     		movs	r2, #128
 2175 008a 5969     		ldr	r1, [r3, #20]
 2176 008c 1143     		orrs	r1, r2
 2177 008e 5961     		str	r1, [r3, #20]
 2178              	.LBE515:
 2179              	.LBE514:
 2180              	.LBB516:
 2181              	.LBB517:
  66:../../src/periph/f1_usart.h ****    USART_& DMA_rx_enable (){this->CR3.DMAR = true;  return *this;}
 2182              		.loc 11 66 0
 2183 0090 4021     		movs	r1, #64
 2184 0092 5E69     		ldr	r6, [r3, #20]
 2185 0094 3143     		orrs	r1, r6
 2186 0096 5961     		str	r1, [r3, #20]
 2187              	.LBE517:
 2188              	.LBE516:
 2189              	.LBB518:
 2190              	.LBB519:
  67:../../src/periph/f1_usart.h ****    USART_& parity_enable (){this->CR1.PCE  = true;  return *this;}
  68:../../src/periph/f1_usart.h ****    USART_& parity_disable(){this->CR1.PCE  = false; return *this;}
  69:../../src/periph/f1_usart.h **** 
  70:../../src/periph/f1_usart.h ****    USART_& enable_IDLE_interrupt          (){this->CR1.IDLEIE = true;  return *this;}
 2191              		.loc 11 70 0
 2192 0098 1021     		movs	r1, #16
 2193 009a DE68     		ldr	r6, [r3, #12]
 2194 009c 0E43     		orrs	r6, r1
 2195 009e DE60     		str	r6, [r3, #12]
 2196              	.LBE519:
ARM GAS  /tmp/ccaB5zJT.s 			page 51


 2197              	.LBE518:
 2198              	.LBB520:
 2199              	.LBB521:
  57:../../src/periph/f1_usart.h ****    USART_& disable       (){this->CR1.UE   = false; return *this;}
 2200              		.loc 11 57 0
 2201 00a0 DE68     		ldr	r6, [r3, #12]
 2202 00a2 B446     		mov	ip, r6
 2203 00a4 8026     		movs	r6, #128
 2204 00a6 6746     		mov	r7, ip
 2205 00a8 B601     		lsls	r6, r6, #6
 2206 00aa 3E43     		orrs	r6, r7
 2207 00ac DE60     		str	r6, [r3, #12]
 2208              	.LVL82:
 2209              	.LBE521:
 2210              	.LBE520:
 2211              	.LBB522:
 2212              	.LBB523:
 2213              		.file 12 "../../STM32F1_files/CMSIS/core_cm3.h"
   1:../../STM32F1_files/CMSIS/core_cm3.h **** /**************************************************************************//**
   2:../../STM32F1_files/CMSIS/core_cm3.h ****  * @file     core_cm3.h
   3:../../STM32F1_files/CMSIS/core_cm3.h ****  * @brief    CMSIS Cortex-M3 Core Peripheral Access Layer Header File
   4:../../STM32F1_files/CMSIS/core_cm3.h ****  * @version  V4.30
   5:../../STM32F1_files/CMSIS/core_cm3.h ****  * @date     20. October 2015
   6:../../STM32F1_files/CMSIS/core_cm3.h ****  ******************************************************************************/
   7:../../STM32F1_files/CMSIS/core_cm3.h **** /* Copyright (c) 2009 - 2015 ARM LIMITED
   8:../../STM32F1_files/CMSIS/core_cm3.h **** 
   9:../../STM32F1_files/CMSIS/core_cm3.h ****    All rights reserved.
  10:../../STM32F1_files/CMSIS/core_cm3.h ****    Redistribution and use in source and binary forms, with or without
  11:../../STM32F1_files/CMSIS/core_cm3.h ****    modification, are permitted provided that the following conditions are met:
  12:../../STM32F1_files/CMSIS/core_cm3.h ****    - Redistributions of source code must retain the above copyright
  13:../../STM32F1_files/CMSIS/core_cm3.h ****      notice, this list of conditions and the following disclaimer.
  14:../../STM32F1_files/CMSIS/core_cm3.h ****    - Redistributions in binary form must reproduce the above copyright
  15:../../STM32F1_files/CMSIS/core_cm3.h ****      notice, this list of conditions and the following disclaimer in the
  16:../../STM32F1_files/CMSIS/core_cm3.h ****      documentation and/or other materials provided with the distribution.
  17:../../STM32F1_files/CMSIS/core_cm3.h ****    - Neither the name of ARM nor the names of its contributors may be used
  18:../../STM32F1_files/CMSIS/core_cm3.h ****      to endorse or promote products derived from this software without
  19:../../STM32F1_files/CMSIS/core_cm3.h ****      specific prior written permission.
  20:../../STM32F1_files/CMSIS/core_cm3.h ****    *
  21:../../STM32F1_files/CMSIS/core_cm3.h ****    THIS SOFTWARE IS PROVIDED BY THE COPYRIGHT HOLDERS AND CONTRIBUTORS "AS IS"
  22:../../STM32F1_files/CMSIS/core_cm3.h ****    AND ANY EXPRESS OR IMPLIED WARRANTIES, INCLUDING, BUT NOT LIMITED TO, THE
  23:../../STM32F1_files/CMSIS/core_cm3.h ****    IMPLIED WARRANTIES OF MERCHANTABILITY AND FITNESS FOR A PARTICULAR PURPOSE
  24:../../STM32F1_files/CMSIS/core_cm3.h ****    ARE DISCLAIMED. IN NO EVENT SHALL COPYRIGHT HOLDERS AND CONTRIBUTORS BE
  25:../../STM32F1_files/CMSIS/core_cm3.h ****    LIABLE FOR ANY DIRECT, INDIRECT, INCIDENTAL, SPECIAL, EXEMPLARY, OR
  26:../../STM32F1_files/CMSIS/core_cm3.h ****    CONSEQUENTIAL DAMAGES (INCLUDING, BUT NOT LIMITED TO, PROCUREMENT OF
  27:../../STM32F1_files/CMSIS/core_cm3.h ****    SUBSTITUTE GOODS OR SERVICES; LOSS OF USE, DATA, OR PROFITS; OR BUSINESS
  28:../../STM32F1_files/CMSIS/core_cm3.h ****    INTERRUPTION) HOWEVER CAUSED AND ON ANY THEORY OF LIABILITY, WHETHER IN
  29:../../STM32F1_files/CMSIS/core_cm3.h ****    CONTRACT, STRICT LIABILITY, OR TORT (INCLUDING NEGLIGENCE OR OTHERWISE)
  30:../../STM32F1_files/CMSIS/core_cm3.h ****    ARISING IN ANY WAY OUT OF THE USE OF THIS SOFTWARE, EVEN IF ADVISED OF THE
  31:../../STM32F1_files/CMSIS/core_cm3.h ****    POSSIBILITY OF SUCH DAMAGE.
  32:../../STM32F1_files/CMSIS/core_cm3.h ****    ---------------------------------------------------------------------------*/
  33:../../STM32F1_files/CMSIS/core_cm3.h **** 
  34:../../STM32F1_files/CMSIS/core_cm3.h **** 
  35:../../STM32F1_files/CMSIS/core_cm3.h **** #if   defined ( __ICCARM__ )
  36:../../STM32F1_files/CMSIS/core_cm3.h ****  #pragma system_include         /* treat file as system include file for MISRA check */
  37:../../STM32F1_files/CMSIS/core_cm3.h **** #elif defined(__ARMCC_VERSION) && (__ARMCC_VERSION >= 6010050)
  38:../../STM32F1_files/CMSIS/core_cm3.h ****   #pragma clang system_header   /* treat file as system include file */
  39:../../STM32F1_files/CMSIS/core_cm3.h **** #endif
ARM GAS  /tmp/ccaB5zJT.s 			page 52


  40:../../STM32F1_files/CMSIS/core_cm3.h **** 
  41:../../STM32F1_files/CMSIS/core_cm3.h **** #ifndef __CORE_CM3_H_GENERIC
  42:../../STM32F1_files/CMSIS/core_cm3.h **** #define __CORE_CM3_H_GENERIC
  43:../../STM32F1_files/CMSIS/core_cm3.h **** 
  44:../../STM32F1_files/CMSIS/core_cm3.h **** #include <stdint.h>
  45:../../STM32F1_files/CMSIS/core_cm3.h **** 
  46:../../STM32F1_files/CMSIS/core_cm3.h **** #ifdef __cplusplus
  47:../../STM32F1_files/CMSIS/core_cm3.h ****  extern "C" {
  48:../../STM32F1_files/CMSIS/core_cm3.h **** #endif
  49:../../STM32F1_files/CMSIS/core_cm3.h **** 
  50:../../STM32F1_files/CMSIS/core_cm3.h **** /**
  51:../../STM32F1_files/CMSIS/core_cm3.h ****   \page CMSIS_MISRA_Exceptions  MISRA-C:2004 Compliance Exceptions
  52:../../STM32F1_files/CMSIS/core_cm3.h ****   CMSIS violates the following MISRA-C:2004 rules:
  53:../../STM32F1_files/CMSIS/core_cm3.h **** 
  54:../../STM32F1_files/CMSIS/core_cm3.h ****    \li Required Rule 8.5, object/function definition in header file.<br>
  55:../../STM32F1_files/CMSIS/core_cm3.h ****      Function definitions in header files are used to allow 'inlining'.
  56:../../STM32F1_files/CMSIS/core_cm3.h **** 
  57:../../STM32F1_files/CMSIS/core_cm3.h ****    \li Required Rule 18.4, declaration of union type or object of union type: '{...}'.<br>
  58:../../STM32F1_files/CMSIS/core_cm3.h ****      Unions are used for effective representation of core registers.
  59:../../STM32F1_files/CMSIS/core_cm3.h **** 
  60:../../STM32F1_files/CMSIS/core_cm3.h ****    \li Advisory Rule 19.7, Function-like macro defined.<br>
  61:../../STM32F1_files/CMSIS/core_cm3.h ****      Function-like macros are used to allow more efficient code.
  62:../../STM32F1_files/CMSIS/core_cm3.h ****  */
  63:../../STM32F1_files/CMSIS/core_cm3.h **** 
  64:../../STM32F1_files/CMSIS/core_cm3.h **** 
  65:../../STM32F1_files/CMSIS/core_cm3.h **** /*******************************************************************************
  66:../../STM32F1_files/CMSIS/core_cm3.h ****  *                 CMSIS definitions
  67:../../STM32F1_files/CMSIS/core_cm3.h ****  ******************************************************************************/
  68:../../STM32F1_files/CMSIS/core_cm3.h **** /**
  69:../../STM32F1_files/CMSIS/core_cm3.h ****   \ingroup Cortex_M3
  70:../../STM32F1_files/CMSIS/core_cm3.h ****   @{
  71:../../STM32F1_files/CMSIS/core_cm3.h ****  */
  72:../../STM32F1_files/CMSIS/core_cm3.h **** 
  73:../../STM32F1_files/CMSIS/core_cm3.h **** /*  CMSIS CM3 definitions */
  74:../../STM32F1_files/CMSIS/core_cm3.h **** #define __CM3_CMSIS_VERSION_MAIN  (0x04U)                                      /*!< [31:16] CMSIS H
  75:../../STM32F1_files/CMSIS/core_cm3.h **** #define __CM3_CMSIS_VERSION_SUB   (0x1EU)                                      /*!< [15:0]  CMSIS H
  76:../../STM32F1_files/CMSIS/core_cm3.h **** #define __CM3_CMSIS_VERSION       ((__CM3_CMSIS_VERSION_MAIN << 16U) | \
  77:../../STM32F1_files/CMSIS/core_cm3.h ****                                     __CM3_CMSIS_VERSION_SUB           )        /*!< CMSIS HAL versi
  78:../../STM32F1_files/CMSIS/core_cm3.h **** 
  79:../../STM32F1_files/CMSIS/core_cm3.h **** #define __CORTEX_M                (0x03U)                                      /*!< Cortex-M Core *
  80:../../STM32F1_files/CMSIS/core_cm3.h **** 
  81:../../STM32F1_files/CMSIS/core_cm3.h **** 
  82:../../STM32F1_files/CMSIS/core_cm3.h **** #if   defined ( __CC_ARM )
  83:../../STM32F1_files/CMSIS/core_cm3.h ****   #define __ASM            __asm                                      /*!< asm keyword for ARM Comp
  84:../../STM32F1_files/CMSIS/core_cm3.h ****   #define __INLINE         __inline                                   /*!< inline keyword for ARM C
  85:../../STM32F1_files/CMSIS/core_cm3.h ****   #define __STATIC_INLINE  static __inline
  86:../../STM32F1_files/CMSIS/core_cm3.h **** 
  87:../../STM32F1_files/CMSIS/core_cm3.h **** #elif defined(__ARMCC_VERSION) && (__ARMCC_VERSION >= 6010050)
  88:../../STM32F1_files/CMSIS/core_cm3.h ****   #define __ASM            __asm                                      /*!< asm keyword for ARM Comp
  89:../../STM32F1_files/CMSIS/core_cm3.h ****   #define __INLINE         __inline                                   /*!< inline keyword for ARM C
  90:../../STM32F1_files/CMSIS/core_cm3.h ****   #define __STATIC_INLINE  static __inline
  91:../../STM32F1_files/CMSIS/core_cm3.h **** 
  92:../../STM32F1_files/CMSIS/core_cm3.h **** #elif defined ( __GNUC__ )
  93:../../STM32F1_files/CMSIS/core_cm3.h ****   #define __ASM            __asm                                      /*!< asm keyword for GNU Comp
  94:../../STM32F1_files/CMSIS/core_cm3.h ****   #define __INLINE         inline                                     /*!< inline keyword for GNU C
  95:../../STM32F1_files/CMSIS/core_cm3.h ****   #define __STATIC_INLINE  static inline
  96:../../STM32F1_files/CMSIS/core_cm3.h **** 
ARM GAS  /tmp/ccaB5zJT.s 			page 53


  97:../../STM32F1_files/CMSIS/core_cm3.h **** #elif defined ( __ICCARM__ )
  98:../../STM32F1_files/CMSIS/core_cm3.h ****   #define __ASM            __asm                                      /*!< asm keyword for IAR Comp
  99:../../STM32F1_files/CMSIS/core_cm3.h ****   #define __INLINE         inline                                     /*!< inline keyword for IAR C
 100:../../STM32F1_files/CMSIS/core_cm3.h ****   #define __STATIC_INLINE  static inline
 101:../../STM32F1_files/CMSIS/core_cm3.h **** 
 102:../../STM32F1_files/CMSIS/core_cm3.h **** #elif defined ( __TMS470__ )
 103:../../STM32F1_files/CMSIS/core_cm3.h ****   #define __ASM            __asm                                      /*!< asm keyword for TI CCS C
 104:../../STM32F1_files/CMSIS/core_cm3.h ****   #define __STATIC_INLINE  static inline
 105:../../STM32F1_files/CMSIS/core_cm3.h **** 
 106:../../STM32F1_files/CMSIS/core_cm3.h **** #elif defined ( __TASKING__ )
 107:../../STM32F1_files/CMSIS/core_cm3.h ****   #define __ASM            __asm                                      /*!< asm keyword for TASKING 
 108:../../STM32F1_files/CMSIS/core_cm3.h ****   #define __INLINE         inline                                     /*!< inline keyword for TASKI
 109:../../STM32F1_files/CMSIS/core_cm3.h ****   #define __STATIC_INLINE  static inline
 110:../../STM32F1_files/CMSIS/core_cm3.h **** 
 111:../../STM32F1_files/CMSIS/core_cm3.h **** #elif defined ( __CSMC__ )
 112:../../STM32F1_files/CMSIS/core_cm3.h ****   #define __packed
 113:../../STM32F1_files/CMSIS/core_cm3.h ****   #define __ASM            _asm                                      /*!< asm keyword for COSMIC Co
 114:../../STM32F1_files/CMSIS/core_cm3.h ****   #define __INLINE         inline                                    /*!< inline keyword for COSMIC
 115:../../STM32F1_files/CMSIS/core_cm3.h ****   #define __STATIC_INLINE  static inline
 116:../../STM32F1_files/CMSIS/core_cm3.h **** 
 117:../../STM32F1_files/CMSIS/core_cm3.h **** #else
 118:../../STM32F1_files/CMSIS/core_cm3.h ****   #error Unknown compiler
 119:../../STM32F1_files/CMSIS/core_cm3.h **** #endif
 120:../../STM32F1_files/CMSIS/core_cm3.h **** 
 121:../../STM32F1_files/CMSIS/core_cm3.h **** /** __FPU_USED indicates whether an FPU is used or not.
 122:../../STM32F1_files/CMSIS/core_cm3.h ****     This core does not support an FPU at all
 123:../../STM32F1_files/CMSIS/core_cm3.h **** */
 124:../../STM32F1_files/CMSIS/core_cm3.h **** #define __FPU_USED       0U
 125:../../STM32F1_files/CMSIS/core_cm3.h **** 
 126:../../STM32F1_files/CMSIS/core_cm3.h **** #if defined ( __CC_ARM )
 127:../../STM32F1_files/CMSIS/core_cm3.h ****   #if defined __TARGET_FPU_VFP
 128:../../STM32F1_files/CMSIS/core_cm3.h ****     #error "Compiler generates FPU instructions for a device without an FPU (check __FPU_PRESENT)"
 129:../../STM32F1_files/CMSIS/core_cm3.h ****   #endif
 130:../../STM32F1_files/CMSIS/core_cm3.h **** 
 131:../../STM32F1_files/CMSIS/core_cm3.h **** #elif defined(__ARMCC_VERSION) && (__ARMCC_VERSION >= 6010050)
 132:../../STM32F1_files/CMSIS/core_cm3.h ****   #if defined __ARM_PCS_VFP
 133:../../STM32F1_files/CMSIS/core_cm3.h ****     #error "Compiler generates FPU instructions for a device without an FPU (check __FPU_PRESENT)"
 134:../../STM32F1_files/CMSIS/core_cm3.h ****   #endif
 135:../../STM32F1_files/CMSIS/core_cm3.h **** 
 136:../../STM32F1_files/CMSIS/core_cm3.h **** #elif defined ( __GNUC__ )
 137:../../STM32F1_files/CMSIS/core_cm3.h ****   #if defined (__VFP_FP__) && !defined(__SOFTFP__)
 138:../../STM32F1_files/CMSIS/core_cm3.h ****     #error "Compiler generates FPU instructions for a device without an FPU (check __FPU_PRESENT)"
 139:../../STM32F1_files/CMSIS/core_cm3.h ****   #endif
 140:../../STM32F1_files/CMSIS/core_cm3.h **** 
 141:../../STM32F1_files/CMSIS/core_cm3.h **** #elif defined ( __ICCARM__ )
 142:../../STM32F1_files/CMSIS/core_cm3.h ****   #if defined __ARMVFP__
 143:../../STM32F1_files/CMSIS/core_cm3.h ****     #error "Compiler generates FPU instructions for a device without an FPU (check __FPU_PRESENT)"
 144:../../STM32F1_files/CMSIS/core_cm3.h ****   #endif
 145:../../STM32F1_files/CMSIS/core_cm3.h **** 
 146:../../STM32F1_files/CMSIS/core_cm3.h **** #elif defined ( __TMS470__ )
 147:../../STM32F1_files/CMSIS/core_cm3.h ****   #if defined __TI_VFP_SUPPORT__
 148:../../STM32F1_files/CMSIS/core_cm3.h ****     #error "Compiler generates FPU instructions for a device without an FPU (check __FPU_PRESENT)"
 149:../../STM32F1_files/CMSIS/core_cm3.h ****   #endif
 150:../../STM32F1_files/CMSIS/core_cm3.h **** 
 151:../../STM32F1_files/CMSIS/core_cm3.h **** #elif defined ( __TASKING__ )
 152:../../STM32F1_files/CMSIS/core_cm3.h ****   #if defined __FPU_VFP__
 153:../../STM32F1_files/CMSIS/core_cm3.h ****     #error "Compiler generates FPU instructions for a device without an FPU (check __FPU_PRESENT)"
ARM GAS  /tmp/ccaB5zJT.s 			page 54


 154:../../STM32F1_files/CMSIS/core_cm3.h ****   #endif
 155:../../STM32F1_files/CMSIS/core_cm3.h **** 
 156:../../STM32F1_files/CMSIS/core_cm3.h **** #elif defined ( __CSMC__ )
 157:../../STM32F1_files/CMSIS/core_cm3.h ****   #if ( __CSMC__ & 0x400U)
 158:../../STM32F1_files/CMSIS/core_cm3.h ****     #error "Compiler generates FPU instructions for a device without an FPU (check __FPU_PRESENT)"
 159:../../STM32F1_files/CMSIS/core_cm3.h ****   #endif
 160:../../STM32F1_files/CMSIS/core_cm3.h **** 
 161:../../STM32F1_files/CMSIS/core_cm3.h **** #endif
 162:../../STM32F1_files/CMSIS/core_cm3.h **** 
 163:../../STM32F1_files/CMSIS/core_cm3.h **** #include "core_cmInstr.h"                /* Core Instruction Access */
 164:../../STM32F1_files/CMSIS/core_cm3.h **** #include "core_cmFunc.h"                 /* Core Function Access */
 165:../../STM32F1_files/CMSIS/core_cm3.h **** 
 166:../../STM32F1_files/CMSIS/core_cm3.h **** #ifdef __cplusplus
 167:../../STM32F1_files/CMSIS/core_cm3.h **** }
 168:../../STM32F1_files/CMSIS/core_cm3.h **** #endif
 169:../../STM32F1_files/CMSIS/core_cm3.h **** 
 170:../../STM32F1_files/CMSIS/core_cm3.h **** #endif /* __CORE_CM3_H_GENERIC */
 171:../../STM32F1_files/CMSIS/core_cm3.h **** 
 172:../../STM32F1_files/CMSIS/core_cm3.h **** #ifndef __CMSIS_GENERIC
 173:../../STM32F1_files/CMSIS/core_cm3.h **** 
 174:../../STM32F1_files/CMSIS/core_cm3.h **** #ifndef __CORE_CM3_H_DEPENDANT
 175:../../STM32F1_files/CMSIS/core_cm3.h **** #define __CORE_CM3_H_DEPENDANT
 176:../../STM32F1_files/CMSIS/core_cm3.h **** 
 177:../../STM32F1_files/CMSIS/core_cm3.h **** #ifdef __cplusplus
 178:../../STM32F1_files/CMSIS/core_cm3.h ****  extern "C" {
 179:../../STM32F1_files/CMSIS/core_cm3.h **** #endif
 180:../../STM32F1_files/CMSIS/core_cm3.h **** 
 181:../../STM32F1_files/CMSIS/core_cm3.h **** /* check device defines and use defaults */
 182:../../STM32F1_files/CMSIS/core_cm3.h **** #if defined __CHECK_DEVICE_DEFINES
 183:../../STM32F1_files/CMSIS/core_cm3.h ****   #ifndef __CM3_REV
 184:../../STM32F1_files/CMSIS/core_cm3.h ****     #define __CM3_REV               0x0200U
 185:../../STM32F1_files/CMSIS/core_cm3.h ****     #warning "__CM3_REV not defined in device header file; using default!"
 186:../../STM32F1_files/CMSIS/core_cm3.h ****   #endif
 187:../../STM32F1_files/CMSIS/core_cm3.h **** 
 188:../../STM32F1_files/CMSIS/core_cm3.h ****   #ifndef __MPU_PRESENT
 189:../../STM32F1_files/CMSIS/core_cm3.h ****     #define __MPU_PRESENT             0U
 190:../../STM32F1_files/CMSIS/core_cm3.h ****     #warning "__MPU_PRESENT not defined in device header file; using default!"
 191:../../STM32F1_files/CMSIS/core_cm3.h ****   #endif
 192:../../STM32F1_files/CMSIS/core_cm3.h **** 
 193:../../STM32F1_files/CMSIS/core_cm3.h ****   #ifndef __NVIC_PRIO_BITS
 194:../../STM32F1_files/CMSIS/core_cm3.h ****     #define __NVIC_PRIO_BITS          4U
 195:../../STM32F1_files/CMSIS/core_cm3.h ****     #warning "__NVIC_PRIO_BITS not defined in device header file; using default!"
 196:../../STM32F1_files/CMSIS/core_cm3.h ****   #endif
 197:../../STM32F1_files/CMSIS/core_cm3.h **** 
 198:../../STM32F1_files/CMSIS/core_cm3.h ****   #ifndef __Vendor_SysTickConfig
 199:../../STM32F1_files/CMSIS/core_cm3.h ****     #define __Vendor_SysTickConfig    0U
 200:../../STM32F1_files/CMSIS/core_cm3.h ****     #warning "__Vendor_SysTickConfig not defined in device header file; using default!"
 201:../../STM32F1_files/CMSIS/core_cm3.h ****   #endif
 202:../../STM32F1_files/CMSIS/core_cm3.h **** #endif
 203:../../STM32F1_files/CMSIS/core_cm3.h **** 
 204:../../STM32F1_files/CMSIS/core_cm3.h **** /* IO definitions (access restrictions to peripheral registers) */
 205:../../STM32F1_files/CMSIS/core_cm3.h **** /**
 206:../../STM32F1_files/CMSIS/core_cm3.h ****     \defgroup CMSIS_glob_defs CMSIS Global Defines
 207:../../STM32F1_files/CMSIS/core_cm3.h **** 
 208:../../STM32F1_files/CMSIS/core_cm3.h ****     <strong>IO Type Qualifiers</strong> are used
 209:../../STM32F1_files/CMSIS/core_cm3.h ****     \li to specify the access to peripheral variables.
 210:../../STM32F1_files/CMSIS/core_cm3.h ****     \li for automatic generation of peripheral register debug information.
ARM GAS  /tmp/ccaB5zJT.s 			page 55


 211:../../STM32F1_files/CMSIS/core_cm3.h **** */
 212:../../STM32F1_files/CMSIS/core_cm3.h **** #ifdef __cplusplus
 213:../../STM32F1_files/CMSIS/core_cm3.h ****   #define   __I     volatile             /*!< Defines 'read only' permissions */
 214:../../STM32F1_files/CMSIS/core_cm3.h **** #else
 215:../../STM32F1_files/CMSIS/core_cm3.h ****   #define   __I     volatile const       /*!< Defines 'read only' permissions */
 216:../../STM32F1_files/CMSIS/core_cm3.h **** #endif
 217:../../STM32F1_files/CMSIS/core_cm3.h **** #define     __O     volatile             /*!< Defines 'write only' permissions */
 218:../../STM32F1_files/CMSIS/core_cm3.h **** #define     __IO    volatile             /*!< Defines 'read / write' permissions */
 219:../../STM32F1_files/CMSIS/core_cm3.h **** 
 220:../../STM32F1_files/CMSIS/core_cm3.h **** /* following defines should be used for structure members */
 221:../../STM32F1_files/CMSIS/core_cm3.h **** #define     __IM     volatile const      /*! Defines 'read only' structure member permissions */
 222:../../STM32F1_files/CMSIS/core_cm3.h **** #define     __OM     volatile            /*! Defines 'write only' structure member permissions */
 223:../../STM32F1_files/CMSIS/core_cm3.h **** #define     __IOM    volatile            /*! Defines 'read / write' structure member permissions */
 224:../../STM32F1_files/CMSIS/core_cm3.h **** 
 225:../../STM32F1_files/CMSIS/core_cm3.h **** /*@} end of group Cortex_M3 */
 226:../../STM32F1_files/CMSIS/core_cm3.h **** 
 227:../../STM32F1_files/CMSIS/core_cm3.h **** 
 228:../../STM32F1_files/CMSIS/core_cm3.h **** 
 229:../../STM32F1_files/CMSIS/core_cm3.h **** /*******************************************************************************
 230:../../STM32F1_files/CMSIS/core_cm3.h ****  *                 Register Abstraction
 231:../../STM32F1_files/CMSIS/core_cm3.h ****   Core Register contain:
 232:../../STM32F1_files/CMSIS/core_cm3.h ****   - Core Register
 233:../../STM32F1_files/CMSIS/core_cm3.h ****   - Core NVIC Register
 234:../../STM32F1_files/CMSIS/core_cm3.h ****   - Core SCB Register
 235:../../STM32F1_files/CMSIS/core_cm3.h ****   - Core SysTick Register
 236:../../STM32F1_files/CMSIS/core_cm3.h ****   - Core Debug Register
 237:../../STM32F1_files/CMSIS/core_cm3.h ****   - Core MPU Register
 238:../../STM32F1_files/CMSIS/core_cm3.h ****  ******************************************************************************/
 239:../../STM32F1_files/CMSIS/core_cm3.h **** /**
 240:../../STM32F1_files/CMSIS/core_cm3.h ****   \defgroup CMSIS_core_register Defines and Type Definitions
 241:../../STM32F1_files/CMSIS/core_cm3.h ****   \brief Type definitions and defines for Cortex-M processor based devices.
 242:../../STM32F1_files/CMSIS/core_cm3.h **** */
 243:../../STM32F1_files/CMSIS/core_cm3.h **** 
 244:../../STM32F1_files/CMSIS/core_cm3.h **** /**
 245:../../STM32F1_files/CMSIS/core_cm3.h ****   \ingroup    CMSIS_core_register
 246:../../STM32F1_files/CMSIS/core_cm3.h ****   \defgroup   CMSIS_CORE  Status and Control Registers
 247:../../STM32F1_files/CMSIS/core_cm3.h ****   \brief      Core Register type definitions.
 248:../../STM32F1_files/CMSIS/core_cm3.h ****   @{
 249:../../STM32F1_files/CMSIS/core_cm3.h ****  */
 250:../../STM32F1_files/CMSIS/core_cm3.h **** 
 251:../../STM32F1_files/CMSIS/core_cm3.h **** /**
 252:../../STM32F1_files/CMSIS/core_cm3.h ****   \brief  Union type to access the Application Program Status Register (APSR).
 253:../../STM32F1_files/CMSIS/core_cm3.h ****  */
 254:../../STM32F1_files/CMSIS/core_cm3.h **** typedef union
 255:../../STM32F1_files/CMSIS/core_cm3.h **** {
 256:../../STM32F1_files/CMSIS/core_cm3.h ****   struct
 257:../../STM32F1_files/CMSIS/core_cm3.h ****   {
 258:../../STM32F1_files/CMSIS/core_cm3.h ****     uint32_t _reserved0:27;              /*!< bit:  0..26  Reserved */
 259:../../STM32F1_files/CMSIS/core_cm3.h ****     uint32_t Q:1;                        /*!< bit:     27  Saturation condition flag */
 260:../../STM32F1_files/CMSIS/core_cm3.h ****     uint32_t V:1;                        /*!< bit:     28  Overflow condition code flag */
 261:../../STM32F1_files/CMSIS/core_cm3.h ****     uint32_t C:1;                        /*!< bit:     29  Carry condition code flag */
 262:../../STM32F1_files/CMSIS/core_cm3.h ****     uint32_t Z:1;                        /*!< bit:     30  Zero condition code flag */
 263:../../STM32F1_files/CMSIS/core_cm3.h ****     uint32_t N:1;                        /*!< bit:     31  Negative condition code flag */
 264:../../STM32F1_files/CMSIS/core_cm3.h ****   } b;                                   /*!< Structure used for bit  access */
 265:../../STM32F1_files/CMSIS/core_cm3.h ****   uint32_t w;                            /*!< Type      used for word access */
 266:../../STM32F1_files/CMSIS/core_cm3.h **** } APSR_Type;
 267:../../STM32F1_files/CMSIS/core_cm3.h **** 
ARM GAS  /tmp/ccaB5zJT.s 			page 56


 268:../../STM32F1_files/CMSIS/core_cm3.h **** /* APSR Register Definitions */
 269:../../STM32F1_files/CMSIS/core_cm3.h **** #define APSR_N_Pos                         31U                                            /*!< APSR
 270:../../STM32F1_files/CMSIS/core_cm3.h **** #define APSR_N_Msk                         (1UL << APSR_N_Pos)                            /*!< APSR
 271:../../STM32F1_files/CMSIS/core_cm3.h **** 
 272:../../STM32F1_files/CMSIS/core_cm3.h **** #define APSR_Z_Pos                         30U                                            /*!< APSR
 273:../../STM32F1_files/CMSIS/core_cm3.h **** #define APSR_Z_Msk                         (1UL << APSR_Z_Pos)                            /*!< APSR
 274:../../STM32F1_files/CMSIS/core_cm3.h **** 
 275:../../STM32F1_files/CMSIS/core_cm3.h **** #define APSR_C_Pos                         29U                                            /*!< APSR
 276:../../STM32F1_files/CMSIS/core_cm3.h **** #define APSR_C_Msk                         (1UL << APSR_C_Pos)                            /*!< APSR
 277:../../STM32F1_files/CMSIS/core_cm3.h **** 
 278:../../STM32F1_files/CMSIS/core_cm3.h **** #define APSR_V_Pos                         28U                                            /*!< APSR
 279:../../STM32F1_files/CMSIS/core_cm3.h **** #define APSR_V_Msk                         (1UL << APSR_V_Pos)                            /*!< APSR
 280:../../STM32F1_files/CMSIS/core_cm3.h **** 
 281:../../STM32F1_files/CMSIS/core_cm3.h **** #define APSR_Q_Pos                         27U                                            /*!< APSR
 282:../../STM32F1_files/CMSIS/core_cm3.h **** #define APSR_Q_Msk                         (1UL << APSR_Q_Pos)                            /*!< APSR
 283:../../STM32F1_files/CMSIS/core_cm3.h **** 
 284:../../STM32F1_files/CMSIS/core_cm3.h **** 
 285:../../STM32F1_files/CMSIS/core_cm3.h **** /**
 286:../../STM32F1_files/CMSIS/core_cm3.h ****   \brief  Union type to access the Interrupt Program Status Register (IPSR).
 287:../../STM32F1_files/CMSIS/core_cm3.h ****  */
 288:../../STM32F1_files/CMSIS/core_cm3.h **** typedef union
 289:../../STM32F1_files/CMSIS/core_cm3.h **** {
 290:../../STM32F1_files/CMSIS/core_cm3.h ****   struct
 291:../../STM32F1_files/CMSIS/core_cm3.h ****   {
 292:../../STM32F1_files/CMSIS/core_cm3.h ****     uint32_t ISR:9;                      /*!< bit:  0.. 8  Exception number */
 293:../../STM32F1_files/CMSIS/core_cm3.h ****     uint32_t _reserved0:23;              /*!< bit:  9..31  Reserved */
 294:../../STM32F1_files/CMSIS/core_cm3.h ****   } b;                                   /*!< Structure used for bit  access */
 295:../../STM32F1_files/CMSIS/core_cm3.h ****   uint32_t w;                            /*!< Type      used for word access */
 296:../../STM32F1_files/CMSIS/core_cm3.h **** } IPSR_Type;
 297:../../STM32F1_files/CMSIS/core_cm3.h **** 
 298:../../STM32F1_files/CMSIS/core_cm3.h **** /* IPSR Register Definitions */
 299:../../STM32F1_files/CMSIS/core_cm3.h **** #define IPSR_ISR_Pos                        0U                                            /*!< IPSR
 300:../../STM32F1_files/CMSIS/core_cm3.h **** #define IPSR_ISR_Msk                       (0x1FFUL /*<< IPSR_ISR_Pos*/)                  /*!< IPSR
 301:../../STM32F1_files/CMSIS/core_cm3.h **** 
 302:../../STM32F1_files/CMSIS/core_cm3.h **** 
 303:../../STM32F1_files/CMSIS/core_cm3.h **** /**
 304:../../STM32F1_files/CMSIS/core_cm3.h ****   \brief  Union type to access the Special-Purpose Program Status Registers (xPSR).
 305:../../STM32F1_files/CMSIS/core_cm3.h ****  */
 306:../../STM32F1_files/CMSIS/core_cm3.h **** typedef union
 307:../../STM32F1_files/CMSIS/core_cm3.h **** {
 308:../../STM32F1_files/CMSIS/core_cm3.h ****   struct
 309:../../STM32F1_files/CMSIS/core_cm3.h ****   {
 310:../../STM32F1_files/CMSIS/core_cm3.h ****     uint32_t ISR:9;                      /*!< bit:  0.. 8  Exception number */
 311:../../STM32F1_files/CMSIS/core_cm3.h ****     uint32_t _reserved0:15;              /*!< bit:  9..23  Reserved */
 312:../../STM32F1_files/CMSIS/core_cm3.h ****     uint32_t T:1;                        /*!< bit:     24  Thumb bit        (read 0) */
 313:../../STM32F1_files/CMSIS/core_cm3.h ****     uint32_t IT:2;                       /*!< bit: 25..26  saved IT state   (read 0) */
 314:../../STM32F1_files/CMSIS/core_cm3.h ****     uint32_t Q:1;                        /*!< bit:     27  Saturation condition flag */
 315:../../STM32F1_files/CMSIS/core_cm3.h ****     uint32_t V:1;                        /*!< bit:     28  Overflow condition code flag */
 316:../../STM32F1_files/CMSIS/core_cm3.h ****     uint32_t C:1;                        /*!< bit:     29  Carry condition code flag */
 317:../../STM32F1_files/CMSIS/core_cm3.h ****     uint32_t Z:1;                        /*!< bit:     30  Zero condition code flag */
 318:../../STM32F1_files/CMSIS/core_cm3.h ****     uint32_t N:1;                        /*!< bit:     31  Negative condition code flag */
 319:../../STM32F1_files/CMSIS/core_cm3.h ****   } b;                                   /*!< Structure used for bit  access */
 320:../../STM32F1_files/CMSIS/core_cm3.h ****   uint32_t w;                            /*!< Type      used for word access */
 321:../../STM32F1_files/CMSIS/core_cm3.h **** } xPSR_Type;
 322:../../STM32F1_files/CMSIS/core_cm3.h **** 
 323:../../STM32F1_files/CMSIS/core_cm3.h **** /* xPSR Register Definitions */
 324:../../STM32F1_files/CMSIS/core_cm3.h **** #define xPSR_N_Pos                         31U                                            /*!< xPSR
ARM GAS  /tmp/ccaB5zJT.s 			page 57


 325:../../STM32F1_files/CMSIS/core_cm3.h **** #define xPSR_N_Msk                         (1UL << xPSR_N_Pos)                            /*!< xPSR
 326:../../STM32F1_files/CMSIS/core_cm3.h **** 
 327:../../STM32F1_files/CMSIS/core_cm3.h **** #define xPSR_Z_Pos                         30U                                            /*!< xPSR
 328:../../STM32F1_files/CMSIS/core_cm3.h **** #define xPSR_Z_Msk                         (1UL << xPSR_Z_Pos)                            /*!< xPSR
 329:../../STM32F1_files/CMSIS/core_cm3.h **** 
 330:../../STM32F1_files/CMSIS/core_cm3.h **** #define xPSR_C_Pos                         29U                                            /*!< xPSR
 331:../../STM32F1_files/CMSIS/core_cm3.h **** #define xPSR_C_Msk                         (1UL << xPSR_C_Pos)                            /*!< xPSR
 332:../../STM32F1_files/CMSIS/core_cm3.h **** 
 333:../../STM32F1_files/CMSIS/core_cm3.h **** #define xPSR_V_Pos                         28U                                            /*!< xPSR
 334:../../STM32F1_files/CMSIS/core_cm3.h **** #define xPSR_V_Msk                         (1UL << xPSR_V_Pos)                            /*!< xPSR
 335:../../STM32F1_files/CMSIS/core_cm3.h **** 
 336:../../STM32F1_files/CMSIS/core_cm3.h **** #define xPSR_Q_Pos                         27U                                            /*!< xPSR
 337:../../STM32F1_files/CMSIS/core_cm3.h **** #define xPSR_Q_Msk                         (1UL << xPSR_Q_Pos)                            /*!< xPSR
 338:../../STM32F1_files/CMSIS/core_cm3.h **** 
 339:../../STM32F1_files/CMSIS/core_cm3.h **** #define xPSR_IT_Pos                        25U                                            /*!< xPSR
 340:../../STM32F1_files/CMSIS/core_cm3.h **** #define xPSR_IT_Msk                        (3UL << xPSR_IT_Pos)                           /*!< xPSR
 341:../../STM32F1_files/CMSIS/core_cm3.h **** 
 342:../../STM32F1_files/CMSIS/core_cm3.h **** #define xPSR_T_Pos                         24U                                            /*!< xPSR
 343:../../STM32F1_files/CMSIS/core_cm3.h **** #define xPSR_T_Msk                         (1UL << xPSR_T_Pos)                            /*!< xPSR
 344:../../STM32F1_files/CMSIS/core_cm3.h **** 
 345:../../STM32F1_files/CMSIS/core_cm3.h **** #define xPSR_ISR_Pos                        0U                                            /*!< xPSR
 346:../../STM32F1_files/CMSIS/core_cm3.h **** #define xPSR_ISR_Msk                       (0x1FFUL /*<< xPSR_ISR_Pos*/)                  /*!< xPSR
 347:../../STM32F1_files/CMSIS/core_cm3.h **** 
 348:../../STM32F1_files/CMSIS/core_cm3.h **** 
 349:../../STM32F1_files/CMSIS/core_cm3.h **** /**
 350:../../STM32F1_files/CMSIS/core_cm3.h ****   \brief  Union type to access the Control Registers (CONTROL).
 351:../../STM32F1_files/CMSIS/core_cm3.h ****  */
 352:../../STM32F1_files/CMSIS/core_cm3.h **** typedef union
 353:../../STM32F1_files/CMSIS/core_cm3.h **** {
 354:../../STM32F1_files/CMSIS/core_cm3.h ****   struct
 355:../../STM32F1_files/CMSIS/core_cm3.h ****   {
 356:../../STM32F1_files/CMSIS/core_cm3.h ****     uint32_t nPRIV:1;                    /*!< bit:      0  Execution privilege in Thread mode */
 357:../../STM32F1_files/CMSIS/core_cm3.h ****     uint32_t SPSEL:1;                    /*!< bit:      1  Stack to be used */
 358:../../STM32F1_files/CMSIS/core_cm3.h ****     uint32_t _reserved1:30;              /*!< bit:  2..31  Reserved */
 359:../../STM32F1_files/CMSIS/core_cm3.h ****   } b;                                   /*!< Structure used for bit  access */
 360:../../STM32F1_files/CMSIS/core_cm3.h ****   uint32_t w;                            /*!< Type      used for word access */
 361:../../STM32F1_files/CMSIS/core_cm3.h **** } CONTROL_Type;
 362:../../STM32F1_files/CMSIS/core_cm3.h **** 
 363:../../STM32F1_files/CMSIS/core_cm3.h **** /* CONTROL Register Definitions */
 364:../../STM32F1_files/CMSIS/core_cm3.h **** #define CONTROL_SPSEL_Pos                   1U                                            /*!< CONT
 365:../../STM32F1_files/CMSIS/core_cm3.h **** #define CONTROL_SPSEL_Msk                  (1UL << CONTROL_SPSEL_Pos)                     /*!< CONT
 366:../../STM32F1_files/CMSIS/core_cm3.h **** 
 367:../../STM32F1_files/CMSIS/core_cm3.h **** #define CONTROL_nPRIV_Pos                   0U                                            /*!< CONT
 368:../../STM32F1_files/CMSIS/core_cm3.h **** #define CONTROL_nPRIV_Msk                  (1UL /*<< CONTROL_nPRIV_Pos*/)                 /*!< CONT
 369:../../STM32F1_files/CMSIS/core_cm3.h **** 
 370:../../STM32F1_files/CMSIS/core_cm3.h **** /*@} end of group CMSIS_CORE */
 371:../../STM32F1_files/CMSIS/core_cm3.h **** 
 372:../../STM32F1_files/CMSIS/core_cm3.h **** 
 373:../../STM32F1_files/CMSIS/core_cm3.h **** /**
 374:../../STM32F1_files/CMSIS/core_cm3.h ****   \ingroup    CMSIS_core_register
 375:../../STM32F1_files/CMSIS/core_cm3.h ****   \defgroup   CMSIS_NVIC  Nested Vectored Interrupt Controller (NVIC)
 376:../../STM32F1_files/CMSIS/core_cm3.h ****   \brief      Type definitions for the NVIC Registers
 377:../../STM32F1_files/CMSIS/core_cm3.h ****   @{
 378:../../STM32F1_files/CMSIS/core_cm3.h ****  */
 379:../../STM32F1_files/CMSIS/core_cm3.h **** 
 380:../../STM32F1_files/CMSIS/core_cm3.h **** /**
 381:../../STM32F1_files/CMSIS/core_cm3.h ****   \brief  Structure type to access the Nested Vectored Interrupt Controller (NVIC).
ARM GAS  /tmp/ccaB5zJT.s 			page 58


 382:../../STM32F1_files/CMSIS/core_cm3.h ****  */
 383:../../STM32F1_files/CMSIS/core_cm3.h **** typedef struct
 384:../../STM32F1_files/CMSIS/core_cm3.h **** {
 385:../../STM32F1_files/CMSIS/core_cm3.h ****   __IOM uint32_t ISER[8U];               /*!< Offset: 0x000 (R/W)  Interrupt Set Enable Register */
 386:../../STM32F1_files/CMSIS/core_cm3.h ****         uint32_t RESERVED0[24U];
 387:../../STM32F1_files/CMSIS/core_cm3.h ****   __IOM uint32_t ICER[8U];               /*!< Offset: 0x080 (R/W)  Interrupt Clear Enable Register 
 388:../../STM32F1_files/CMSIS/core_cm3.h ****         uint32_t RSERVED1[24U];
 389:../../STM32F1_files/CMSIS/core_cm3.h ****   __IOM uint32_t ISPR[8U];               /*!< Offset: 0x100 (R/W)  Interrupt Set Pending Register *
 390:../../STM32F1_files/CMSIS/core_cm3.h ****         uint32_t RESERVED2[24U];
 391:../../STM32F1_files/CMSIS/core_cm3.h ****   __IOM uint32_t ICPR[8U];               /*!< Offset: 0x180 (R/W)  Interrupt Clear Pending Register
 392:../../STM32F1_files/CMSIS/core_cm3.h ****         uint32_t RESERVED3[24U];
 393:../../STM32F1_files/CMSIS/core_cm3.h ****   __IOM uint32_t IABR[8U];               /*!< Offset: 0x200 (R/W)  Interrupt Active bit Register */
 394:../../STM32F1_files/CMSIS/core_cm3.h ****         uint32_t RESERVED4[56U];
 395:../../STM32F1_files/CMSIS/core_cm3.h ****   __IOM uint8_t  IP[240U];               /*!< Offset: 0x300 (R/W)  Interrupt Priority Register (8Bi
 396:../../STM32F1_files/CMSIS/core_cm3.h ****         uint32_t RESERVED5[644U];
 397:../../STM32F1_files/CMSIS/core_cm3.h ****   __OM  uint32_t STIR;                   /*!< Offset: 0xE00 ( /W)  Software Trigger Interrupt Regis
 398:../../STM32F1_files/CMSIS/core_cm3.h **** }  NVIC_Type;
 399:../../STM32F1_files/CMSIS/core_cm3.h **** 
 400:../../STM32F1_files/CMSIS/core_cm3.h **** /* Software Triggered Interrupt Register Definitions */
 401:../../STM32F1_files/CMSIS/core_cm3.h **** #define NVIC_STIR_INTID_Pos                 0U                                         /*!< STIR: I
 402:../../STM32F1_files/CMSIS/core_cm3.h **** #define NVIC_STIR_INTID_Msk                (0x1FFUL /*<< NVIC_STIR_INTID_Pos*/)        /*!< STIR: I
 403:../../STM32F1_files/CMSIS/core_cm3.h **** 
 404:../../STM32F1_files/CMSIS/core_cm3.h **** /*@} end of group CMSIS_NVIC */
 405:../../STM32F1_files/CMSIS/core_cm3.h **** 
 406:../../STM32F1_files/CMSIS/core_cm3.h **** 
 407:../../STM32F1_files/CMSIS/core_cm3.h **** /**
 408:../../STM32F1_files/CMSIS/core_cm3.h ****   \ingroup  CMSIS_core_register
 409:../../STM32F1_files/CMSIS/core_cm3.h ****   \defgroup CMSIS_SCB     System Control Block (SCB)
 410:../../STM32F1_files/CMSIS/core_cm3.h ****   \brief    Type definitions for the System Control Block Registers
 411:../../STM32F1_files/CMSIS/core_cm3.h ****   @{
 412:../../STM32F1_files/CMSIS/core_cm3.h ****  */
 413:../../STM32F1_files/CMSIS/core_cm3.h **** 
 414:../../STM32F1_files/CMSIS/core_cm3.h **** /**
 415:../../STM32F1_files/CMSIS/core_cm3.h ****   \brief  Structure type to access the System Control Block (SCB).
 416:../../STM32F1_files/CMSIS/core_cm3.h ****  */
 417:../../STM32F1_files/CMSIS/core_cm3.h **** typedef struct
 418:../../STM32F1_files/CMSIS/core_cm3.h **** {
 419:../../STM32F1_files/CMSIS/core_cm3.h ****   __IM  uint32_t CPUID;                  /*!< Offset: 0x000 (R/ )  CPUID Base Register */
 420:../../STM32F1_files/CMSIS/core_cm3.h ****   __IOM uint32_t ICSR;                   /*!< Offset: 0x004 (R/W)  Interrupt Control and State Regi
 421:../../STM32F1_files/CMSIS/core_cm3.h ****   __IOM uint32_t VTOR;                   /*!< Offset: 0x008 (R/W)  Vector Table Offset Register */
 422:../../STM32F1_files/CMSIS/core_cm3.h ****   __IOM uint32_t AIRCR;                  /*!< Offset: 0x00C (R/W)  Application Interrupt and Reset 
 423:../../STM32F1_files/CMSIS/core_cm3.h ****   __IOM uint32_t SCR;                    /*!< Offset: 0x010 (R/W)  System Control Register */
 424:../../STM32F1_files/CMSIS/core_cm3.h ****   __IOM uint32_t CCR;                    /*!< Offset: 0x014 (R/W)  Configuration Control Register *
 425:../../STM32F1_files/CMSIS/core_cm3.h ****   __IOM uint8_t  SHP[12U];               /*!< Offset: 0x018 (R/W)  System Handlers Priority Registe
 426:../../STM32F1_files/CMSIS/core_cm3.h ****   __IOM uint32_t SHCSR;                  /*!< Offset: 0x024 (R/W)  System Handler Control and State
 427:../../STM32F1_files/CMSIS/core_cm3.h ****   __IOM uint32_t CFSR;                   /*!< Offset: 0x028 (R/W)  Configurable Fault Status Regist
 428:../../STM32F1_files/CMSIS/core_cm3.h ****   __IOM uint32_t HFSR;                   /*!< Offset: 0x02C (R/W)  HardFault Status Register */
 429:../../STM32F1_files/CMSIS/core_cm3.h ****   __IOM uint32_t DFSR;                   /*!< Offset: 0x030 (R/W)  Debug Fault Status Register */
 430:../../STM32F1_files/CMSIS/core_cm3.h ****   __IOM uint32_t MMFAR;                  /*!< Offset: 0x034 (R/W)  MemManage Fault Address Register
 431:../../STM32F1_files/CMSIS/core_cm3.h ****   __IOM uint32_t BFAR;                   /*!< Offset: 0x038 (R/W)  BusFault Address Register */
 432:../../STM32F1_files/CMSIS/core_cm3.h ****   __IOM uint32_t AFSR;                   /*!< Offset: 0x03C (R/W)  Auxiliary Fault Status Register 
 433:../../STM32F1_files/CMSIS/core_cm3.h ****   __IM  uint32_t PFR[2U];                /*!< Offset: 0x040 (R/ )  Processor Feature Register */
 434:../../STM32F1_files/CMSIS/core_cm3.h ****   __IM  uint32_t DFR;                    /*!< Offset: 0x048 (R/ )  Debug Feature Register */
 435:../../STM32F1_files/CMSIS/core_cm3.h ****   __IM  uint32_t ADR;                    /*!< Offset: 0x04C (R/ )  Auxiliary Feature Register */
 436:../../STM32F1_files/CMSIS/core_cm3.h ****   __IM  uint32_t MMFR[4U];               /*!< Offset: 0x050 (R/ )  Memory Model Feature Register */
 437:../../STM32F1_files/CMSIS/core_cm3.h ****   __IM  uint32_t ISAR[5U];               /*!< Offset: 0x060 (R/ )  Instruction Set Attributes Regis
 438:../../STM32F1_files/CMSIS/core_cm3.h ****         uint32_t RESERVED0[5U];
ARM GAS  /tmp/ccaB5zJT.s 			page 59


 439:../../STM32F1_files/CMSIS/core_cm3.h ****   __IOM uint32_t CPACR;                  /*!< Offset: 0x088 (R/W)  Coprocessor Access Control Regis
 440:../../STM32F1_files/CMSIS/core_cm3.h **** } SCB_Type;
 441:../../STM32F1_files/CMSIS/core_cm3.h **** 
 442:../../STM32F1_files/CMSIS/core_cm3.h **** /* SCB CPUID Register Definitions */
 443:../../STM32F1_files/CMSIS/core_cm3.h **** #define SCB_CPUID_IMPLEMENTER_Pos          24U                                            /*!< SCB 
 444:../../STM32F1_files/CMSIS/core_cm3.h **** #define SCB_CPUID_IMPLEMENTER_Msk          (0xFFUL << SCB_CPUID_IMPLEMENTER_Pos)          /*!< SCB 
 445:../../STM32F1_files/CMSIS/core_cm3.h **** 
 446:../../STM32F1_files/CMSIS/core_cm3.h **** #define SCB_CPUID_VARIANT_Pos              20U                                            /*!< SCB 
 447:../../STM32F1_files/CMSIS/core_cm3.h **** #define SCB_CPUID_VARIANT_Msk              (0xFUL << SCB_CPUID_VARIANT_Pos)               /*!< SCB 
 448:../../STM32F1_files/CMSIS/core_cm3.h **** 
 449:../../STM32F1_files/CMSIS/core_cm3.h **** #define SCB_CPUID_ARCHITECTURE_Pos         16U                                            /*!< SCB 
 450:../../STM32F1_files/CMSIS/core_cm3.h **** #define SCB_CPUID_ARCHITECTURE_Msk         (0xFUL << SCB_CPUID_ARCHITECTURE_Pos)          /*!< SCB 
 451:../../STM32F1_files/CMSIS/core_cm3.h **** 
 452:../../STM32F1_files/CMSIS/core_cm3.h **** #define SCB_CPUID_PARTNO_Pos                4U                                            /*!< SCB 
 453:../../STM32F1_files/CMSIS/core_cm3.h **** #define SCB_CPUID_PARTNO_Msk               (0xFFFUL << SCB_CPUID_PARTNO_Pos)              /*!< SCB 
 454:../../STM32F1_files/CMSIS/core_cm3.h **** 
 455:../../STM32F1_files/CMSIS/core_cm3.h **** #define SCB_CPUID_REVISION_Pos              0U                                            /*!< SCB 
 456:../../STM32F1_files/CMSIS/core_cm3.h **** #define SCB_CPUID_REVISION_Msk             (0xFUL /*<< SCB_CPUID_REVISION_Pos*/)          /*!< SCB 
 457:../../STM32F1_files/CMSIS/core_cm3.h **** 
 458:../../STM32F1_files/CMSIS/core_cm3.h **** /* SCB Interrupt Control State Register Definitions */
 459:../../STM32F1_files/CMSIS/core_cm3.h **** #define SCB_ICSR_NMIPENDSET_Pos            31U                                            /*!< SCB 
 460:../../STM32F1_files/CMSIS/core_cm3.h **** #define SCB_ICSR_NMIPENDSET_Msk            (1UL << SCB_ICSR_NMIPENDSET_Pos)               /*!< SCB 
 461:../../STM32F1_files/CMSIS/core_cm3.h **** 
 462:../../STM32F1_files/CMSIS/core_cm3.h **** #define SCB_ICSR_PENDSVSET_Pos             28U                                            /*!< SCB 
 463:../../STM32F1_files/CMSIS/core_cm3.h **** #define SCB_ICSR_PENDSVSET_Msk             (1UL << SCB_ICSR_PENDSVSET_Pos)                /*!< SCB 
 464:../../STM32F1_files/CMSIS/core_cm3.h **** 
 465:../../STM32F1_files/CMSIS/core_cm3.h **** #define SCB_ICSR_PENDSVCLR_Pos             27U                                            /*!< SCB 
 466:../../STM32F1_files/CMSIS/core_cm3.h **** #define SCB_ICSR_PENDSVCLR_Msk             (1UL << SCB_ICSR_PENDSVCLR_Pos)                /*!< SCB 
 467:../../STM32F1_files/CMSIS/core_cm3.h **** 
 468:../../STM32F1_files/CMSIS/core_cm3.h **** #define SCB_ICSR_PENDSTSET_Pos             26U                                            /*!< SCB 
 469:../../STM32F1_files/CMSIS/core_cm3.h **** #define SCB_ICSR_PENDSTSET_Msk             (1UL << SCB_ICSR_PENDSTSET_Pos)                /*!< SCB 
 470:../../STM32F1_files/CMSIS/core_cm3.h **** 
 471:../../STM32F1_files/CMSIS/core_cm3.h **** #define SCB_ICSR_PENDSTCLR_Pos             25U                                            /*!< SCB 
 472:../../STM32F1_files/CMSIS/core_cm3.h **** #define SCB_ICSR_PENDSTCLR_Msk             (1UL << SCB_ICSR_PENDSTCLR_Pos)                /*!< SCB 
 473:../../STM32F1_files/CMSIS/core_cm3.h **** 
 474:../../STM32F1_files/CMSIS/core_cm3.h **** #define SCB_ICSR_ISRPREEMPT_Pos            23U                                            /*!< SCB 
 475:../../STM32F1_files/CMSIS/core_cm3.h **** #define SCB_ICSR_ISRPREEMPT_Msk            (1UL << SCB_ICSR_ISRPREEMPT_Pos)               /*!< SCB 
 476:../../STM32F1_files/CMSIS/core_cm3.h **** 
 477:../../STM32F1_files/CMSIS/core_cm3.h **** #define SCB_ICSR_ISRPENDING_Pos            22U                                            /*!< SCB 
 478:../../STM32F1_files/CMSIS/core_cm3.h **** #define SCB_ICSR_ISRPENDING_Msk            (1UL << SCB_ICSR_ISRPENDING_Pos)               /*!< SCB 
 479:../../STM32F1_files/CMSIS/core_cm3.h **** 
 480:../../STM32F1_files/CMSIS/core_cm3.h **** #define SCB_ICSR_VECTPENDING_Pos           12U                                            /*!< SCB 
 481:../../STM32F1_files/CMSIS/core_cm3.h **** #define SCB_ICSR_VECTPENDING_Msk           (0x1FFUL << SCB_ICSR_VECTPENDING_Pos)          /*!< SCB 
 482:../../STM32F1_files/CMSIS/core_cm3.h **** 
 483:../../STM32F1_files/CMSIS/core_cm3.h **** #define SCB_ICSR_RETTOBASE_Pos             11U                                            /*!< SCB 
 484:../../STM32F1_files/CMSIS/core_cm3.h **** #define SCB_ICSR_RETTOBASE_Msk             (1UL << SCB_ICSR_RETTOBASE_Pos)                /*!< SCB 
 485:../../STM32F1_files/CMSIS/core_cm3.h **** 
 486:../../STM32F1_files/CMSIS/core_cm3.h **** #define SCB_ICSR_VECTACTIVE_Pos             0U                                            /*!< SCB 
 487:../../STM32F1_files/CMSIS/core_cm3.h **** #define SCB_ICSR_VECTACTIVE_Msk            (0x1FFUL /*<< SCB_ICSR_VECTACTIVE_Pos*/)       /*!< SCB 
 488:../../STM32F1_files/CMSIS/core_cm3.h **** 
 489:../../STM32F1_files/CMSIS/core_cm3.h **** /* SCB Vector Table Offset Register Definitions */
 490:../../STM32F1_files/CMSIS/core_cm3.h **** #if (__CM3_REV < 0x0201U)                   /* core r2p1 */
 491:../../STM32F1_files/CMSIS/core_cm3.h **** #define SCB_VTOR_TBLBASE_Pos               29U                                            /*!< SCB 
 492:../../STM32F1_files/CMSIS/core_cm3.h **** #define SCB_VTOR_TBLBASE_Msk               (1UL << SCB_VTOR_TBLBASE_Pos)                  /*!< SCB 
 493:../../STM32F1_files/CMSIS/core_cm3.h **** 
 494:../../STM32F1_files/CMSIS/core_cm3.h **** #define SCB_VTOR_TBLOFF_Pos                 7U                                            /*!< SCB 
 495:../../STM32F1_files/CMSIS/core_cm3.h **** #define SCB_VTOR_TBLOFF_Msk                (0x3FFFFFUL << SCB_VTOR_TBLOFF_Pos)            /*!< SCB 
ARM GAS  /tmp/ccaB5zJT.s 			page 60


 496:../../STM32F1_files/CMSIS/core_cm3.h **** #else
 497:../../STM32F1_files/CMSIS/core_cm3.h **** #define SCB_VTOR_TBLOFF_Pos                 7U                                            /*!< SCB 
 498:../../STM32F1_files/CMSIS/core_cm3.h **** #define SCB_VTOR_TBLOFF_Msk                (0x1FFFFFFUL << SCB_VTOR_TBLOFF_Pos)           /*!< SCB 
 499:../../STM32F1_files/CMSIS/core_cm3.h **** #endif
 500:../../STM32F1_files/CMSIS/core_cm3.h **** 
 501:../../STM32F1_files/CMSIS/core_cm3.h **** /* SCB Application Interrupt and Reset Control Register Definitions */
 502:../../STM32F1_files/CMSIS/core_cm3.h **** #define SCB_AIRCR_VECTKEY_Pos              16U                                            /*!< SCB 
 503:../../STM32F1_files/CMSIS/core_cm3.h **** #define SCB_AIRCR_VECTKEY_Msk              (0xFFFFUL << SCB_AIRCR_VECTKEY_Pos)            /*!< SCB 
 504:../../STM32F1_files/CMSIS/core_cm3.h **** 
 505:../../STM32F1_files/CMSIS/core_cm3.h **** #define SCB_AIRCR_VECTKEYSTAT_Pos          16U                                            /*!< SCB 
 506:../../STM32F1_files/CMSIS/core_cm3.h **** #define SCB_AIRCR_VECTKEYSTAT_Msk          (0xFFFFUL << SCB_AIRCR_VECTKEYSTAT_Pos)        /*!< SCB 
 507:../../STM32F1_files/CMSIS/core_cm3.h **** 
 508:../../STM32F1_files/CMSIS/core_cm3.h **** #define SCB_AIRCR_ENDIANESS_Pos            15U                                            /*!< SCB 
 509:../../STM32F1_files/CMSIS/core_cm3.h **** #define SCB_AIRCR_ENDIANESS_Msk            (1UL << SCB_AIRCR_ENDIANESS_Pos)               /*!< SCB 
 510:../../STM32F1_files/CMSIS/core_cm3.h **** 
 511:../../STM32F1_files/CMSIS/core_cm3.h **** #define SCB_AIRCR_PRIGROUP_Pos              8U                                            /*!< SCB 
 512:../../STM32F1_files/CMSIS/core_cm3.h **** #define SCB_AIRCR_PRIGROUP_Msk             (7UL << SCB_AIRCR_PRIGROUP_Pos)                /*!< SCB 
 513:../../STM32F1_files/CMSIS/core_cm3.h **** 
 514:../../STM32F1_files/CMSIS/core_cm3.h **** #define SCB_AIRCR_SYSRESETREQ_Pos           2U                                            /*!< SCB 
 515:../../STM32F1_files/CMSIS/core_cm3.h **** #define SCB_AIRCR_SYSRESETREQ_Msk          (1UL << SCB_AIRCR_SYSRESETREQ_Pos)             /*!< SCB 
 516:../../STM32F1_files/CMSIS/core_cm3.h **** 
 517:../../STM32F1_files/CMSIS/core_cm3.h **** #define SCB_AIRCR_VECTCLRACTIVE_Pos         1U                                            /*!< SCB 
 518:../../STM32F1_files/CMSIS/core_cm3.h **** #define SCB_AIRCR_VECTCLRACTIVE_Msk        (1UL << SCB_AIRCR_VECTCLRACTIVE_Pos)           /*!< SCB 
 519:../../STM32F1_files/CMSIS/core_cm3.h **** 
 520:../../STM32F1_files/CMSIS/core_cm3.h **** #define SCB_AIRCR_VECTRESET_Pos             0U                                            /*!< SCB 
 521:../../STM32F1_files/CMSIS/core_cm3.h **** #define SCB_AIRCR_VECTRESET_Msk            (1UL /*<< SCB_AIRCR_VECTRESET_Pos*/)           /*!< SCB 
 522:../../STM32F1_files/CMSIS/core_cm3.h **** 
 523:../../STM32F1_files/CMSIS/core_cm3.h **** /* SCB System Control Register Definitions */
 524:../../STM32F1_files/CMSIS/core_cm3.h **** #define SCB_SCR_SEVONPEND_Pos               4U                                            /*!< SCB 
 525:../../STM32F1_files/CMSIS/core_cm3.h **** #define SCB_SCR_SEVONPEND_Msk              (1UL << SCB_SCR_SEVONPEND_Pos)                 /*!< SCB 
 526:../../STM32F1_files/CMSIS/core_cm3.h **** 
 527:../../STM32F1_files/CMSIS/core_cm3.h **** #define SCB_SCR_SLEEPDEEP_Pos               2U                                            /*!< SCB 
 528:../../STM32F1_files/CMSIS/core_cm3.h **** #define SCB_SCR_SLEEPDEEP_Msk              (1UL << SCB_SCR_SLEEPDEEP_Pos)                 /*!< SCB 
 529:../../STM32F1_files/CMSIS/core_cm3.h **** 
 530:../../STM32F1_files/CMSIS/core_cm3.h **** #define SCB_SCR_SLEEPONEXIT_Pos             1U                                            /*!< SCB 
 531:../../STM32F1_files/CMSIS/core_cm3.h **** #define SCB_SCR_SLEEPONEXIT_Msk            (1UL << SCB_SCR_SLEEPONEXIT_Pos)               /*!< SCB 
 532:../../STM32F1_files/CMSIS/core_cm3.h **** 
 533:../../STM32F1_files/CMSIS/core_cm3.h **** /* SCB Configuration Control Register Definitions */
 534:../../STM32F1_files/CMSIS/core_cm3.h **** #define SCB_CCR_STKALIGN_Pos                9U                                            /*!< SCB 
 535:../../STM32F1_files/CMSIS/core_cm3.h **** #define SCB_CCR_STKALIGN_Msk               (1UL << SCB_CCR_STKALIGN_Pos)                  /*!< SCB 
 536:../../STM32F1_files/CMSIS/core_cm3.h **** 
 537:../../STM32F1_files/CMSIS/core_cm3.h **** #define SCB_CCR_BFHFNMIGN_Pos               8U                                            /*!< SCB 
 538:../../STM32F1_files/CMSIS/core_cm3.h **** #define SCB_CCR_BFHFNMIGN_Msk              (1UL << SCB_CCR_BFHFNMIGN_Pos)                 /*!< SCB 
 539:../../STM32F1_files/CMSIS/core_cm3.h **** 
 540:../../STM32F1_files/CMSIS/core_cm3.h **** #define SCB_CCR_DIV_0_TRP_Pos               4U                                            /*!< SCB 
 541:../../STM32F1_files/CMSIS/core_cm3.h **** #define SCB_CCR_DIV_0_TRP_Msk              (1UL << SCB_CCR_DIV_0_TRP_Pos)                 /*!< SCB 
 542:../../STM32F1_files/CMSIS/core_cm3.h **** 
 543:../../STM32F1_files/CMSIS/core_cm3.h **** #define SCB_CCR_UNALIGN_TRP_Pos             3U                                            /*!< SCB 
 544:../../STM32F1_files/CMSIS/core_cm3.h **** #define SCB_CCR_UNALIGN_TRP_Msk            (1UL << SCB_CCR_UNALIGN_TRP_Pos)               /*!< SCB 
 545:../../STM32F1_files/CMSIS/core_cm3.h **** 
 546:../../STM32F1_files/CMSIS/core_cm3.h **** #define SCB_CCR_USERSETMPEND_Pos            1U                                            /*!< SCB 
 547:../../STM32F1_files/CMSIS/core_cm3.h **** #define SCB_CCR_USERSETMPEND_Msk           (1UL << SCB_CCR_USERSETMPEND_Pos)              /*!< SCB 
 548:../../STM32F1_files/CMSIS/core_cm3.h **** 
 549:../../STM32F1_files/CMSIS/core_cm3.h **** #define SCB_CCR_NONBASETHRDENA_Pos          0U                                            /*!< SCB 
 550:../../STM32F1_files/CMSIS/core_cm3.h **** #define SCB_CCR_NONBASETHRDENA_Msk         (1UL /*<< SCB_CCR_NONBASETHRDENA_Pos*/)        /*!< SCB 
 551:../../STM32F1_files/CMSIS/core_cm3.h **** 
 552:../../STM32F1_files/CMSIS/core_cm3.h **** /* SCB System Handler Control and State Register Definitions */
ARM GAS  /tmp/ccaB5zJT.s 			page 61


 553:../../STM32F1_files/CMSIS/core_cm3.h **** #define SCB_SHCSR_USGFAULTENA_Pos          18U                                            /*!< SCB 
 554:../../STM32F1_files/CMSIS/core_cm3.h **** #define SCB_SHCSR_USGFAULTENA_Msk          (1UL << SCB_SHCSR_USGFAULTENA_Pos)             /*!< SCB 
 555:../../STM32F1_files/CMSIS/core_cm3.h **** 
 556:../../STM32F1_files/CMSIS/core_cm3.h **** #define SCB_SHCSR_BUSFAULTENA_Pos          17U                                            /*!< SCB 
 557:../../STM32F1_files/CMSIS/core_cm3.h **** #define SCB_SHCSR_BUSFAULTENA_Msk          (1UL << SCB_SHCSR_BUSFAULTENA_Pos)             /*!< SCB 
 558:../../STM32F1_files/CMSIS/core_cm3.h **** 
 559:../../STM32F1_files/CMSIS/core_cm3.h **** #define SCB_SHCSR_MEMFAULTENA_Pos          16U                                            /*!< SCB 
 560:../../STM32F1_files/CMSIS/core_cm3.h **** #define SCB_SHCSR_MEMFAULTENA_Msk          (1UL << SCB_SHCSR_MEMFAULTENA_Pos)             /*!< SCB 
 561:../../STM32F1_files/CMSIS/core_cm3.h **** 
 562:../../STM32F1_files/CMSIS/core_cm3.h **** #define SCB_SHCSR_SVCALLPENDED_Pos         15U                                            /*!< SCB 
 563:../../STM32F1_files/CMSIS/core_cm3.h **** #define SCB_SHCSR_SVCALLPENDED_Msk         (1UL << SCB_SHCSR_SVCALLPENDED_Pos)            /*!< SCB 
 564:../../STM32F1_files/CMSIS/core_cm3.h **** 
 565:../../STM32F1_files/CMSIS/core_cm3.h **** #define SCB_SHCSR_BUSFAULTPENDED_Pos       14U                                            /*!< SCB 
 566:../../STM32F1_files/CMSIS/core_cm3.h **** #define SCB_SHCSR_BUSFAULTPENDED_Msk       (1UL << SCB_SHCSR_BUSFAULTPENDED_Pos)          /*!< SCB 
 567:../../STM32F1_files/CMSIS/core_cm3.h **** 
 568:../../STM32F1_files/CMSIS/core_cm3.h **** #define SCB_SHCSR_MEMFAULTPENDED_Pos       13U                                            /*!< SCB 
 569:../../STM32F1_files/CMSIS/core_cm3.h **** #define SCB_SHCSR_MEMFAULTPENDED_Msk       (1UL << SCB_SHCSR_MEMFAULTPENDED_Pos)          /*!< SCB 
 570:../../STM32F1_files/CMSIS/core_cm3.h **** 
 571:../../STM32F1_files/CMSIS/core_cm3.h **** #define SCB_SHCSR_USGFAULTPENDED_Pos       12U                                            /*!< SCB 
 572:../../STM32F1_files/CMSIS/core_cm3.h **** #define SCB_SHCSR_USGFAULTPENDED_Msk       (1UL << SCB_SHCSR_USGFAULTPENDED_Pos)          /*!< SCB 
 573:../../STM32F1_files/CMSIS/core_cm3.h **** 
 574:../../STM32F1_files/CMSIS/core_cm3.h **** #define SCB_SHCSR_SYSTICKACT_Pos           11U                                            /*!< SCB 
 575:../../STM32F1_files/CMSIS/core_cm3.h **** #define SCB_SHCSR_SYSTICKACT_Msk           (1UL << SCB_SHCSR_SYSTICKACT_Pos)              /*!< SCB 
 576:../../STM32F1_files/CMSIS/core_cm3.h **** 
 577:../../STM32F1_files/CMSIS/core_cm3.h **** #define SCB_SHCSR_PENDSVACT_Pos            10U                                            /*!< SCB 
 578:../../STM32F1_files/CMSIS/core_cm3.h **** #define SCB_SHCSR_PENDSVACT_Msk            (1UL << SCB_SHCSR_PENDSVACT_Pos)               /*!< SCB 
 579:../../STM32F1_files/CMSIS/core_cm3.h **** 
 580:../../STM32F1_files/CMSIS/core_cm3.h **** #define SCB_SHCSR_MONITORACT_Pos            8U                                            /*!< SCB 
 581:../../STM32F1_files/CMSIS/core_cm3.h **** #define SCB_SHCSR_MONITORACT_Msk           (1UL << SCB_SHCSR_MONITORACT_Pos)              /*!< SCB 
 582:../../STM32F1_files/CMSIS/core_cm3.h **** 
 583:../../STM32F1_files/CMSIS/core_cm3.h **** #define SCB_SHCSR_SVCALLACT_Pos             7U                                            /*!< SCB 
 584:../../STM32F1_files/CMSIS/core_cm3.h **** #define SCB_SHCSR_SVCALLACT_Msk            (1UL << SCB_SHCSR_SVCALLACT_Pos)               /*!< SCB 
 585:../../STM32F1_files/CMSIS/core_cm3.h **** 
 586:../../STM32F1_files/CMSIS/core_cm3.h **** #define SCB_SHCSR_USGFAULTACT_Pos           3U                                            /*!< SCB 
 587:../../STM32F1_files/CMSIS/core_cm3.h **** #define SCB_SHCSR_USGFAULTACT_Msk          (1UL << SCB_SHCSR_USGFAULTACT_Pos)             /*!< SCB 
 588:../../STM32F1_files/CMSIS/core_cm3.h **** 
 589:../../STM32F1_files/CMSIS/core_cm3.h **** #define SCB_SHCSR_BUSFAULTACT_Pos           1U                                            /*!< SCB 
 590:../../STM32F1_files/CMSIS/core_cm3.h **** #define SCB_SHCSR_BUSFAULTACT_Msk          (1UL << SCB_SHCSR_BUSFAULTACT_Pos)             /*!< SCB 
 591:../../STM32F1_files/CMSIS/core_cm3.h **** 
 592:../../STM32F1_files/CMSIS/core_cm3.h **** #define SCB_SHCSR_MEMFAULTACT_Pos           0U                                            /*!< SCB 
 593:../../STM32F1_files/CMSIS/core_cm3.h **** #define SCB_SHCSR_MEMFAULTACT_Msk          (1UL /*<< SCB_SHCSR_MEMFAULTACT_Pos*/)         /*!< SCB 
 594:../../STM32F1_files/CMSIS/core_cm3.h **** 
 595:../../STM32F1_files/CMSIS/core_cm3.h **** /* SCB Configurable Fault Status Register Definitions */
 596:../../STM32F1_files/CMSIS/core_cm3.h **** #define SCB_CFSR_USGFAULTSR_Pos            16U                                            /*!< SCB 
 597:../../STM32F1_files/CMSIS/core_cm3.h **** #define SCB_CFSR_USGFAULTSR_Msk            (0xFFFFUL << SCB_CFSR_USGFAULTSR_Pos)          /*!< SCB 
 598:../../STM32F1_files/CMSIS/core_cm3.h **** 
 599:../../STM32F1_files/CMSIS/core_cm3.h **** #define SCB_CFSR_BUSFAULTSR_Pos             8U                                            /*!< SCB 
 600:../../STM32F1_files/CMSIS/core_cm3.h **** #define SCB_CFSR_BUSFAULTSR_Msk            (0xFFUL << SCB_CFSR_BUSFAULTSR_Pos)            /*!< SCB 
 601:../../STM32F1_files/CMSIS/core_cm3.h **** 
 602:../../STM32F1_files/CMSIS/core_cm3.h **** #define SCB_CFSR_MEMFAULTSR_Pos             0U                                            /*!< SCB 
 603:../../STM32F1_files/CMSIS/core_cm3.h **** #define SCB_CFSR_MEMFAULTSR_Msk            (0xFFUL /*<< SCB_CFSR_MEMFAULTSR_Pos*/)        /*!< SCB 
 604:../../STM32F1_files/CMSIS/core_cm3.h **** 
 605:../../STM32F1_files/CMSIS/core_cm3.h **** /* SCB Hard Fault Status Register Definitions */
 606:../../STM32F1_files/CMSIS/core_cm3.h **** #define SCB_HFSR_DEBUGEVT_Pos              31U                                            /*!< SCB 
 607:../../STM32F1_files/CMSIS/core_cm3.h **** #define SCB_HFSR_DEBUGEVT_Msk              (1UL << SCB_HFSR_DEBUGEVT_Pos)                 /*!< SCB 
 608:../../STM32F1_files/CMSIS/core_cm3.h **** 
 609:../../STM32F1_files/CMSIS/core_cm3.h **** #define SCB_HFSR_FORCED_Pos                30U                                            /*!< SCB 
ARM GAS  /tmp/ccaB5zJT.s 			page 62


 610:../../STM32F1_files/CMSIS/core_cm3.h **** #define SCB_HFSR_FORCED_Msk                (1UL << SCB_HFSR_FORCED_Pos)                   /*!< SCB 
 611:../../STM32F1_files/CMSIS/core_cm3.h **** 
 612:../../STM32F1_files/CMSIS/core_cm3.h **** #define SCB_HFSR_VECTTBL_Pos                1U                                            /*!< SCB 
 613:../../STM32F1_files/CMSIS/core_cm3.h **** #define SCB_HFSR_VECTTBL_Msk               (1UL << SCB_HFSR_VECTTBL_Pos)                  /*!< SCB 
 614:../../STM32F1_files/CMSIS/core_cm3.h **** 
 615:../../STM32F1_files/CMSIS/core_cm3.h **** /* SCB Debug Fault Status Register Definitions */
 616:../../STM32F1_files/CMSIS/core_cm3.h **** #define SCB_DFSR_EXTERNAL_Pos               4U                                            /*!< SCB 
 617:../../STM32F1_files/CMSIS/core_cm3.h **** #define SCB_DFSR_EXTERNAL_Msk              (1UL << SCB_DFSR_EXTERNAL_Pos)                 /*!< SCB 
 618:../../STM32F1_files/CMSIS/core_cm3.h **** 
 619:../../STM32F1_files/CMSIS/core_cm3.h **** #define SCB_DFSR_VCATCH_Pos                 3U                                            /*!< SCB 
 620:../../STM32F1_files/CMSIS/core_cm3.h **** #define SCB_DFSR_VCATCH_Msk                (1UL << SCB_DFSR_VCATCH_Pos)                   /*!< SCB 
 621:../../STM32F1_files/CMSIS/core_cm3.h **** 
 622:../../STM32F1_files/CMSIS/core_cm3.h **** #define SCB_DFSR_DWTTRAP_Pos                2U                                            /*!< SCB 
 623:../../STM32F1_files/CMSIS/core_cm3.h **** #define SCB_DFSR_DWTTRAP_Msk               (1UL << SCB_DFSR_DWTTRAP_Pos)                  /*!< SCB 
 624:../../STM32F1_files/CMSIS/core_cm3.h **** 
 625:../../STM32F1_files/CMSIS/core_cm3.h **** #define SCB_DFSR_BKPT_Pos                   1U                                            /*!< SCB 
 626:../../STM32F1_files/CMSIS/core_cm3.h **** #define SCB_DFSR_BKPT_Msk                  (1UL << SCB_DFSR_BKPT_Pos)                     /*!< SCB 
 627:../../STM32F1_files/CMSIS/core_cm3.h **** 
 628:../../STM32F1_files/CMSIS/core_cm3.h **** #define SCB_DFSR_HALTED_Pos                 0U                                            /*!< SCB 
 629:../../STM32F1_files/CMSIS/core_cm3.h **** #define SCB_DFSR_HALTED_Msk                (1UL /*<< SCB_DFSR_HALTED_Pos*/)               /*!< SCB 
 630:../../STM32F1_files/CMSIS/core_cm3.h **** 
 631:../../STM32F1_files/CMSIS/core_cm3.h **** /*@} end of group CMSIS_SCB */
 632:../../STM32F1_files/CMSIS/core_cm3.h **** 
 633:../../STM32F1_files/CMSIS/core_cm3.h **** 
 634:../../STM32F1_files/CMSIS/core_cm3.h **** /**
 635:../../STM32F1_files/CMSIS/core_cm3.h ****   \ingroup  CMSIS_core_register
 636:../../STM32F1_files/CMSIS/core_cm3.h ****   \defgroup CMSIS_SCnSCB System Controls not in SCB (SCnSCB)
 637:../../STM32F1_files/CMSIS/core_cm3.h ****   \brief    Type definitions for the System Control and ID Register not in the SCB
 638:../../STM32F1_files/CMSIS/core_cm3.h ****   @{
 639:../../STM32F1_files/CMSIS/core_cm3.h ****  */
 640:../../STM32F1_files/CMSIS/core_cm3.h **** 
 641:../../STM32F1_files/CMSIS/core_cm3.h **** /**
 642:../../STM32F1_files/CMSIS/core_cm3.h ****   \brief  Structure type to access the System Control and ID Register not in the SCB.
 643:../../STM32F1_files/CMSIS/core_cm3.h ****  */
 644:../../STM32F1_files/CMSIS/core_cm3.h **** typedef struct
 645:../../STM32F1_files/CMSIS/core_cm3.h **** {
 646:../../STM32F1_files/CMSIS/core_cm3.h ****         uint32_t RESERVED0[1U];
 647:../../STM32F1_files/CMSIS/core_cm3.h ****   __IM  uint32_t ICTR;                   /*!< Offset: 0x004 (R/ )  Interrupt Controller Type Regist
 648:../../STM32F1_files/CMSIS/core_cm3.h **** #if ((defined __CM3_REV) && (__CM3_REV >= 0x200U))
 649:../../STM32F1_files/CMSIS/core_cm3.h ****   __IOM uint32_t ACTLR;                  /*!< Offset: 0x008 (R/W)  Auxiliary Control Register */
 650:../../STM32F1_files/CMSIS/core_cm3.h **** #else
 651:../../STM32F1_files/CMSIS/core_cm3.h ****         uint32_t RESERVED1[1U];
 652:../../STM32F1_files/CMSIS/core_cm3.h **** #endif
 653:../../STM32F1_files/CMSIS/core_cm3.h **** } SCnSCB_Type;
 654:../../STM32F1_files/CMSIS/core_cm3.h **** 
 655:../../STM32F1_files/CMSIS/core_cm3.h **** /* Interrupt Controller Type Register Definitions */
 656:../../STM32F1_files/CMSIS/core_cm3.h **** #define SCnSCB_ICTR_INTLINESNUM_Pos         0U                                         /*!< ICTR: I
 657:../../STM32F1_files/CMSIS/core_cm3.h **** #define SCnSCB_ICTR_INTLINESNUM_Msk        (0xFUL /*<< SCnSCB_ICTR_INTLINESNUM_Pos*/)  /*!< ICTR: I
 658:../../STM32F1_files/CMSIS/core_cm3.h **** 
 659:../../STM32F1_files/CMSIS/core_cm3.h **** /* Auxiliary Control Register Definitions */
 660:../../STM32F1_files/CMSIS/core_cm3.h **** 
 661:../../STM32F1_files/CMSIS/core_cm3.h **** #define SCnSCB_ACTLR_DISFOLD_Pos            2U                                         /*!< ACTLR: 
 662:../../STM32F1_files/CMSIS/core_cm3.h **** #define SCnSCB_ACTLR_DISFOLD_Msk           (1UL << SCnSCB_ACTLR_DISFOLD_Pos)           /*!< ACTLR: 
 663:../../STM32F1_files/CMSIS/core_cm3.h **** 
 664:../../STM32F1_files/CMSIS/core_cm3.h **** #define SCnSCB_ACTLR_DISDEFWBUF_Pos         1U                                         /*!< ACTLR: 
 665:../../STM32F1_files/CMSIS/core_cm3.h **** #define SCnSCB_ACTLR_DISDEFWBUF_Msk        (1UL << SCnSCB_ACTLR_DISDEFWBUF_Pos)        /*!< ACTLR: 
 666:../../STM32F1_files/CMSIS/core_cm3.h **** 
ARM GAS  /tmp/ccaB5zJT.s 			page 63


 667:../../STM32F1_files/CMSIS/core_cm3.h **** #define SCnSCB_ACTLR_DISMCYCINT_Pos         0U                                         /*!< ACTLR: 
 668:../../STM32F1_files/CMSIS/core_cm3.h **** #define SCnSCB_ACTLR_DISMCYCINT_Msk        (1UL /*<< SCnSCB_ACTLR_DISMCYCINT_Pos*/)    /*!< ACTLR: 
 669:../../STM32F1_files/CMSIS/core_cm3.h **** 
 670:../../STM32F1_files/CMSIS/core_cm3.h **** /*@} end of group CMSIS_SCnotSCB */
 671:../../STM32F1_files/CMSIS/core_cm3.h **** 
 672:../../STM32F1_files/CMSIS/core_cm3.h **** 
 673:../../STM32F1_files/CMSIS/core_cm3.h **** /**
 674:../../STM32F1_files/CMSIS/core_cm3.h ****   \ingroup  CMSIS_core_register
 675:../../STM32F1_files/CMSIS/core_cm3.h ****   \defgroup CMSIS_SysTick     System Tick Timer (SysTick)
 676:../../STM32F1_files/CMSIS/core_cm3.h ****   \brief    Type definitions for the System Timer Registers.
 677:../../STM32F1_files/CMSIS/core_cm3.h ****   @{
 678:../../STM32F1_files/CMSIS/core_cm3.h ****  */
 679:../../STM32F1_files/CMSIS/core_cm3.h **** 
 680:../../STM32F1_files/CMSIS/core_cm3.h **** /**
 681:../../STM32F1_files/CMSIS/core_cm3.h ****   \brief  Structure type to access the System Timer (SysTick).
 682:../../STM32F1_files/CMSIS/core_cm3.h ****  */
 683:../../STM32F1_files/CMSIS/core_cm3.h **** typedef struct
 684:../../STM32F1_files/CMSIS/core_cm3.h **** {
 685:../../STM32F1_files/CMSIS/core_cm3.h ****   __IOM uint32_t CTRL;                   /*!< Offset: 0x000 (R/W)  SysTick Control and Status Regis
 686:../../STM32F1_files/CMSIS/core_cm3.h ****   __IOM uint32_t LOAD;                   /*!< Offset: 0x004 (R/W)  SysTick Reload Value Register */
 687:../../STM32F1_files/CMSIS/core_cm3.h ****   __IOM uint32_t VAL;                    /*!< Offset: 0x008 (R/W)  SysTick Current Value Register *
 688:../../STM32F1_files/CMSIS/core_cm3.h ****   __IM  uint32_t CALIB;                  /*!< Offset: 0x00C (R/ )  SysTick Calibration Register */
 689:../../STM32F1_files/CMSIS/core_cm3.h **** } SysTick_Type;
 690:../../STM32F1_files/CMSIS/core_cm3.h **** 
 691:../../STM32F1_files/CMSIS/core_cm3.h **** /* SysTick Control / Status Register Definitions */
 692:../../STM32F1_files/CMSIS/core_cm3.h **** #define SysTick_CTRL_COUNTFLAG_Pos         16U                                            /*!< SysT
 693:../../STM32F1_files/CMSIS/core_cm3.h **** #define SysTick_CTRL_COUNTFLAG_Msk         (1UL << SysTick_CTRL_COUNTFLAG_Pos)            /*!< SysT
 694:../../STM32F1_files/CMSIS/core_cm3.h **** 
 695:../../STM32F1_files/CMSIS/core_cm3.h **** #define SysTick_CTRL_CLKSOURCE_Pos          2U                                            /*!< SysT
 696:../../STM32F1_files/CMSIS/core_cm3.h **** #define SysTick_CTRL_CLKSOURCE_Msk         (1UL << SysTick_CTRL_CLKSOURCE_Pos)            /*!< SysT
 697:../../STM32F1_files/CMSIS/core_cm3.h **** 
 698:../../STM32F1_files/CMSIS/core_cm3.h **** #define SysTick_CTRL_TICKINT_Pos            1U                                            /*!< SysT
 699:../../STM32F1_files/CMSIS/core_cm3.h **** #define SysTick_CTRL_TICKINT_Msk           (1UL << SysTick_CTRL_TICKINT_Pos)              /*!< SysT
 700:../../STM32F1_files/CMSIS/core_cm3.h **** 
 701:../../STM32F1_files/CMSIS/core_cm3.h **** #define SysTick_CTRL_ENABLE_Pos             0U                                            /*!< SysT
 702:../../STM32F1_files/CMSIS/core_cm3.h **** #define SysTick_CTRL_ENABLE_Msk            (1UL /*<< SysTick_CTRL_ENABLE_Pos*/)           /*!< SysT
 703:../../STM32F1_files/CMSIS/core_cm3.h **** 
 704:../../STM32F1_files/CMSIS/core_cm3.h **** /* SysTick Reload Register Definitions */
 705:../../STM32F1_files/CMSIS/core_cm3.h **** #define SysTick_LOAD_RELOAD_Pos             0U                                            /*!< SysT
 706:../../STM32F1_files/CMSIS/core_cm3.h **** #define SysTick_LOAD_RELOAD_Msk            (0xFFFFFFUL /*<< SysTick_LOAD_RELOAD_Pos*/)    /*!< SysT
 707:../../STM32F1_files/CMSIS/core_cm3.h **** 
 708:../../STM32F1_files/CMSIS/core_cm3.h **** /* SysTick Current Register Definitions */
 709:../../STM32F1_files/CMSIS/core_cm3.h **** #define SysTick_VAL_CURRENT_Pos             0U                                            /*!< SysT
 710:../../STM32F1_files/CMSIS/core_cm3.h **** #define SysTick_VAL_CURRENT_Msk            (0xFFFFFFUL /*<< SysTick_VAL_CURRENT_Pos*/)    /*!< SysT
 711:../../STM32F1_files/CMSIS/core_cm3.h **** 
 712:../../STM32F1_files/CMSIS/core_cm3.h **** /* SysTick Calibration Register Definitions */
 713:../../STM32F1_files/CMSIS/core_cm3.h **** #define SysTick_CALIB_NOREF_Pos            31U                                            /*!< SysT
 714:../../STM32F1_files/CMSIS/core_cm3.h **** #define SysTick_CALIB_NOREF_Msk            (1UL << SysTick_CALIB_NOREF_Pos)               /*!< SysT
 715:../../STM32F1_files/CMSIS/core_cm3.h **** 
 716:../../STM32F1_files/CMSIS/core_cm3.h **** #define SysTick_CALIB_SKEW_Pos             30U                                            /*!< SysT
 717:../../STM32F1_files/CMSIS/core_cm3.h **** #define SysTick_CALIB_SKEW_Msk             (1UL << SysTick_CALIB_SKEW_Pos)                /*!< SysT
 718:../../STM32F1_files/CMSIS/core_cm3.h **** 
 719:../../STM32F1_files/CMSIS/core_cm3.h **** #define SysTick_CALIB_TENMS_Pos             0U                                            /*!< SysT
 720:../../STM32F1_files/CMSIS/core_cm3.h **** #define SysTick_CALIB_TENMS_Msk            (0xFFFFFFUL /*<< SysTick_CALIB_TENMS_Pos*/)    /*!< SysT
 721:../../STM32F1_files/CMSIS/core_cm3.h **** 
 722:../../STM32F1_files/CMSIS/core_cm3.h **** /*@} end of group CMSIS_SysTick */
 723:../../STM32F1_files/CMSIS/core_cm3.h **** 
ARM GAS  /tmp/ccaB5zJT.s 			page 64


 724:../../STM32F1_files/CMSIS/core_cm3.h **** 
 725:../../STM32F1_files/CMSIS/core_cm3.h **** /**
 726:../../STM32F1_files/CMSIS/core_cm3.h ****   \ingroup  CMSIS_core_register
 727:../../STM32F1_files/CMSIS/core_cm3.h ****   \defgroup CMSIS_ITM     Instrumentation Trace Macrocell (ITM)
 728:../../STM32F1_files/CMSIS/core_cm3.h ****   \brief    Type definitions for the Instrumentation Trace Macrocell (ITM)
 729:../../STM32F1_files/CMSIS/core_cm3.h ****   @{
 730:../../STM32F1_files/CMSIS/core_cm3.h ****  */
 731:../../STM32F1_files/CMSIS/core_cm3.h **** 
 732:../../STM32F1_files/CMSIS/core_cm3.h **** /**
 733:../../STM32F1_files/CMSIS/core_cm3.h ****   \brief  Structure type to access the Instrumentation Trace Macrocell Register (ITM).
 734:../../STM32F1_files/CMSIS/core_cm3.h ****  */
 735:../../STM32F1_files/CMSIS/core_cm3.h **** typedef struct
 736:../../STM32F1_files/CMSIS/core_cm3.h **** {
 737:../../STM32F1_files/CMSIS/core_cm3.h ****   __OM  union
 738:../../STM32F1_files/CMSIS/core_cm3.h ****   {
 739:../../STM32F1_files/CMSIS/core_cm3.h ****     __OM  uint8_t    u8;                 /*!< Offset: 0x000 ( /W)  ITM Stimulus Port 8-bit */
 740:../../STM32F1_files/CMSIS/core_cm3.h ****     __OM  uint16_t   u16;                /*!< Offset: 0x000 ( /W)  ITM Stimulus Port 16-bit */
 741:../../STM32F1_files/CMSIS/core_cm3.h ****     __OM  uint32_t   u32;                /*!< Offset: 0x000 ( /W)  ITM Stimulus Port 32-bit */
 742:../../STM32F1_files/CMSIS/core_cm3.h ****   }  PORT [32U];                         /*!< Offset: 0x000 ( /W)  ITM Stimulus Port Registers */
 743:../../STM32F1_files/CMSIS/core_cm3.h ****         uint32_t RESERVED0[864U];
 744:../../STM32F1_files/CMSIS/core_cm3.h ****   __IOM uint32_t TER;                    /*!< Offset: 0xE00 (R/W)  ITM Trace Enable Register */
 745:../../STM32F1_files/CMSIS/core_cm3.h ****         uint32_t RESERVED1[15U];
 746:../../STM32F1_files/CMSIS/core_cm3.h ****   __IOM uint32_t TPR;                    /*!< Offset: 0xE40 (R/W)  ITM Trace Privilege Register */
 747:../../STM32F1_files/CMSIS/core_cm3.h ****         uint32_t RESERVED2[15U];
 748:../../STM32F1_files/CMSIS/core_cm3.h ****   __IOM uint32_t TCR;                    /*!< Offset: 0xE80 (R/W)  ITM Trace Control Register */
 749:../../STM32F1_files/CMSIS/core_cm3.h ****         uint32_t RESERVED3[29U];
 750:../../STM32F1_files/CMSIS/core_cm3.h ****   __OM  uint32_t IWR;                    /*!< Offset: 0xEF8 ( /W)  ITM Integration Write Register *
 751:../../STM32F1_files/CMSIS/core_cm3.h ****   __IM  uint32_t IRR;                    /*!< Offset: 0xEFC (R/ )  ITM Integration Read Register */
 752:../../STM32F1_files/CMSIS/core_cm3.h ****   __IOM uint32_t IMCR;                   /*!< Offset: 0xF00 (R/W)  ITM Integration Mode Control Reg
 753:../../STM32F1_files/CMSIS/core_cm3.h ****         uint32_t RESERVED4[43U];
 754:../../STM32F1_files/CMSIS/core_cm3.h ****   __OM  uint32_t LAR;                    /*!< Offset: 0xFB0 ( /W)  ITM Lock Access Register */
 755:../../STM32F1_files/CMSIS/core_cm3.h ****   __IM  uint32_t LSR;                    /*!< Offset: 0xFB4 (R/ )  ITM Lock Status Register */
 756:../../STM32F1_files/CMSIS/core_cm3.h ****         uint32_t RESERVED5[6U];
 757:../../STM32F1_files/CMSIS/core_cm3.h ****   __IM  uint32_t PID4;                   /*!< Offset: 0xFD0 (R/ )  ITM Peripheral Identification Re
 758:../../STM32F1_files/CMSIS/core_cm3.h ****   __IM  uint32_t PID5;                   /*!< Offset: 0xFD4 (R/ )  ITM Peripheral Identification Re
 759:../../STM32F1_files/CMSIS/core_cm3.h ****   __IM  uint32_t PID6;                   /*!< Offset: 0xFD8 (R/ )  ITM Peripheral Identification Re
 760:../../STM32F1_files/CMSIS/core_cm3.h ****   __IM  uint32_t PID7;                   /*!< Offset: 0xFDC (R/ )  ITM Peripheral Identification Re
 761:../../STM32F1_files/CMSIS/core_cm3.h ****   __IM  uint32_t PID0;                   /*!< Offset: 0xFE0 (R/ )  ITM Peripheral Identification Re
 762:../../STM32F1_files/CMSIS/core_cm3.h ****   __IM  uint32_t PID1;                   /*!< Offset: 0xFE4 (R/ )  ITM Peripheral Identification Re
 763:../../STM32F1_files/CMSIS/core_cm3.h ****   __IM  uint32_t PID2;                   /*!< Offset: 0xFE8 (R/ )  ITM Peripheral Identification Re
 764:../../STM32F1_files/CMSIS/core_cm3.h ****   __IM  uint32_t PID3;                   /*!< Offset: 0xFEC (R/ )  ITM Peripheral Identification Re
 765:../../STM32F1_files/CMSIS/core_cm3.h ****   __IM  uint32_t CID0;                   /*!< Offset: 0xFF0 (R/ )  ITM Component  Identification Re
 766:../../STM32F1_files/CMSIS/core_cm3.h ****   __IM  uint32_t CID1;                   /*!< Offset: 0xFF4 (R/ )  ITM Component  Identification Re
 767:../../STM32F1_files/CMSIS/core_cm3.h ****   __IM  uint32_t CID2;                   /*!< Offset: 0xFF8 (R/ )  ITM Component  Identification Re
 768:../../STM32F1_files/CMSIS/core_cm3.h ****   __IM  uint32_t CID3;                   /*!< Offset: 0xFFC (R/ )  ITM Component  Identification Re
 769:../../STM32F1_files/CMSIS/core_cm3.h **** } ITM_Type;
 770:../../STM32F1_files/CMSIS/core_cm3.h **** 
 771:../../STM32F1_files/CMSIS/core_cm3.h **** /* ITM Trace Privilege Register Definitions */
 772:../../STM32F1_files/CMSIS/core_cm3.h **** #define ITM_TPR_PRIVMASK_Pos                0U                                            /*!< ITM 
 773:../../STM32F1_files/CMSIS/core_cm3.h **** #define ITM_TPR_PRIVMASK_Msk               (0xFUL /*<< ITM_TPR_PRIVMASK_Pos*/)            /*!< ITM 
 774:../../STM32F1_files/CMSIS/core_cm3.h **** 
 775:../../STM32F1_files/CMSIS/core_cm3.h **** /* ITM Trace Control Register Definitions */
 776:../../STM32F1_files/CMSIS/core_cm3.h **** #define ITM_TCR_BUSY_Pos                   23U                                            /*!< ITM 
 777:../../STM32F1_files/CMSIS/core_cm3.h **** #define ITM_TCR_BUSY_Msk                   (1UL << ITM_TCR_BUSY_Pos)                      /*!< ITM 
 778:../../STM32F1_files/CMSIS/core_cm3.h **** 
 779:../../STM32F1_files/CMSIS/core_cm3.h **** #define ITM_TCR_TraceBusID_Pos             16U                                            /*!< ITM 
 780:../../STM32F1_files/CMSIS/core_cm3.h **** #define ITM_TCR_TraceBusID_Msk             (0x7FUL << ITM_TCR_TraceBusID_Pos)             /*!< ITM 
ARM GAS  /tmp/ccaB5zJT.s 			page 65


 781:../../STM32F1_files/CMSIS/core_cm3.h **** 
 782:../../STM32F1_files/CMSIS/core_cm3.h **** #define ITM_TCR_GTSFREQ_Pos                10U                                            /*!< ITM 
 783:../../STM32F1_files/CMSIS/core_cm3.h **** #define ITM_TCR_GTSFREQ_Msk                (3UL << ITM_TCR_GTSFREQ_Pos)                   /*!< ITM 
 784:../../STM32F1_files/CMSIS/core_cm3.h **** 
 785:../../STM32F1_files/CMSIS/core_cm3.h **** #define ITM_TCR_TSPrescale_Pos              8U                                            /*!< ITM 
 786:../../STM32F1_files/CMSIS/core_cm3.h **** #define ITM_TCR_TSPrescale_Msk             (3UL << ITM_TCR_TSPrescale_Pos)                /*!< ITM 
 787:../../STM32F1_files/CMSIS/core_cm3.h **** 
 788:../../STM32F1_files/CMSIS/core_cm3.h **** #define ITM_TCR_SWOENA_Pos                  4U                                            /*!< ITM 
 789:../../STM32F1_files/CMSIS/core_cm3.h **** #define ITM_TCR_SWOENA_Msk                 (1UL << ITM_TCR_SWOENA_Pos)                    /*!< ITM 
 790:../../STM32F1_files/CMSIS/core_cm3.h **** 
 791:../../STM32F1_files/CMSIS/core_cm3.h **** #define ITM_TCR_DWTENA_Pos                  3U                                            /*!< ITM 
 792:../../STM32F1_files/CMSIS/core_cm3.h **** #define ITM_TCR_DWTENA_Msk                 (1UL << ITM_TCR_DWTENA_Pos)                    /*!< ITM 
 793:../../STM32F1_files/CMSIS/core_cm3.h **** 
 794:../../STM32F1_files/CMSIS/core_cm3.h **** #define ITM_TCR_SYNCENA_Pos                 2U                                            /*!< ITM 
 795:../../STM32F1_files/CMSIS/core_cm3.h **** #define ITM_TCR_SYNCENA_Msk                (1UL << ITM_TCR_SYNCENA_Pos)                   /*!< ITM 
 796:../../STM32F1_files/CMSIS/core_cm3.h **** 
 797:../../STM32F1_files/CMSIS/core_cm3.h **** #define ITM_TCR_TSENA_Pos                   1U                                            /*!< ITM 
 798:../../STM32F1_files/CMSIS/core_cm3.h **** #define ITM_TCR_TSENA_Msk                  (1UL << ITM_TCR_TSENA_Pos)                     /*!< ITM 
 799:../../STM32F1_files/CMSIS/core_cm3.h **** 
 800:../../STM32F1_files/CMSIS/core_cm3.h **** #define ITM_TCR_ITMENA_Pos                  0U                                            /*!< ITM 
 801:../../STM32F1_files/CMSIS/core_cm3.h **** #define ITM_TCR_ITMENA_Msk                 (1UL /*<< ITM_TCR_ITMENA_Pos*/)                /*!< ITM 
 802:../../STM32F1_files/CMSIS/core_cm3.h **** 
 803:../../STM32F1_files/CMSIS/core_cm3.h **** /* ITM Integration Write Register Definitions */
 804:../../STM32F1_files/CMSIS/core_cm3.h **** #define ITM_IWR_ATVALIDM_Pos                0U                                            /*!< ITM 
 805:../../STM32F1_files/CMSIS/core_cm3.h **** #define ITM_IWR_ATVALIDM_Msk               (1UL /*<< ITM_IWR_ATVALIDM_Pos*/)              /*!< ITM 
 806:../../STM32F1_files/CMSIS/core_cm3.h **** 
 807:../../STM32F1_files/CMSIS/core_cm3.h **** /* ITM Integration Read Register Definitions */
 808:../../STM32F1_files/CMSIS/core_cm3.h **** #define ITM_IRR_ATREADYM_Pos                0U                                            /*!< ITM 
 809:../../STM32F1_files/CMSIS/core_cm3.h **** #define ITM_IRR_ATREADYM_Msk               (1UL /*<< ITM_IRR_ATREADYM_Pos*/)              /*!< ITM 
 810:../../STM32F1_files/CMSIS/core_cm3.h **** 
 811:../../STM32F1_files/CMSIS/core_cm3.h **** /* ITM Integration Mode Control Register Definitions */
 812:../../STM32F1_files/CMSIS/core_cm3.h **** #define ITM_IMCR_INTEGRATION_Pos            0U                                            /*!< ITM 
 813:../../STM32F1_files/CMSIS/core_cm3.h **** #define ITM_IMCR_INTEGRATION_Msk           (1UL /*<< ITM_IMCR_INTEGRATION_Pos*/)          /*!< ITM 
 814:../../STM32F1_files/CMSIS/core_cm3.h **** 
 815:../../STM32F1_files/CMSIS/core_cm3.h **** /* ITM Lock Status Register Definitions */
 816:../../STM32F1_files/CMSIS/core_cm3.h **** #define ITM_LSR_ByteAcc_Pos                 2U                                            /*!< ITM 
 817:../../STM32F1_files/CMSIS/core_cm3.h **** #define ITM_LSR_ByteAcc_Msk                (1UL << ITM_LSR_ByteAcc_Pos)                   /*!< ITM 
 818:../../STM32F1_files/CMSIS/core_cm3.h **** 
 819:../../STM32F1_files/CMSIS/core_cm3.h **** #define ITM_LSR_Access_Pos                  1U                                            /*!< ITM 
 820:../../STM32F1_files/CMSIS/core_cm3.h **** #define ITM_LSR_Access_Msk                 (1UL << ITM_LSR_Access_Pos)                    /*!< ITM 
 821:../../STM32F1_files/CMSIS/core_cm3.h **** 
 822:../../STM32F1_files/CMSIS/core_cm3.h **** #define ITM_LSR_Present_Pos                 0U                                            /*!< ITM 
 823:../../STM32F1_files/CMSIS/core_cm3.h **** #define ITM_LSR_Present_Msk                (1UL /*<< ITM_LSR_Present_Pos*/)               /*!< ITM 
 824:../../STM32F1_files/CMSIS/core_cm3.h **** 
 825:../../STM32F1_files/CMSIS/core_cm3.h **** /*@}*/ /* end of group CMSIS_ITM */
 826:../../STM32F1_files/CMSIS/core_cm3.h **** 
 827:../../STM32F1_files/CMSIS/core_cm3.h **** 
 828:../../STM32F1_files/CMSIS/core_cm3.h **** /**
 829:../../STM32F1_files/CMSIS/core_cm3.h ****   \ingroup  CMSIS_core_register
 830:../../STM32F1_files/CMSIS/core_cm3.h ****   \defgroup CMSIS_DWT     Data Watchpoint and Trace (DWT)
 831:../../STM32F1_files/CMSIS/core_cm3.h ****   \brief    Type definitions for the Data Watchpoint and Trace (DWT)
 832:../../STM32F1_files/CMSIS/core_cm3.h ****   @{
 833:../../STM32F1_files/CMSIS/core_cm3.h ****  */
 834:../../STM32F1_files/CMSIS/core_cm3.h **** 
 835:../../STM32F1_files/CMSIS/core_cm3.h **** /**
 836:../../STM32F1_files/CMSIS/core_cm3.h ****   \brief  Structure type to access the Data Watchpoint and Trace Register (DWT).
 837:../../STM32F1_files/CMSIS/core_cm3.h ****  */
ARM GAS  /tmp/ccaB5zJT.s 			page 66


 838:../../STM32F1_files/CMSIS/core_cm3.h **** typedef struct
 839:../../STM32F1_files/CMSIS/core_cm3.h **** {
 840:../../STM32F1_files/CMSIS/core_cm3.h ****   __IOM uint32_t CTRL;                   /*!< Offset: 0x000 (R/W)  Control Register */
 841:../../STM32F1_files/CMSIS/core_cm3.h ****   __IOM uint32_t CYCCNT;                 /*!< Offset: 0x004 (R/W)  Cycle Count Register */
 842:../../STM32F1_files/CMSIS/core_cm3.h ****   __IOM uint32_t CPICNT;                 /*!< Offset: 0x008 (R/W)  CPI Count Register */
 843:../../STM32F1_files/CMSIS/core_cm3.h ****   __IOM uint32_t EXCCNT;                 /*!< Offset: 0x00C (R/W)  Exception Overhead Count Registe
 844:../../STM32F1_files/CMSIS/core_cm3.h ****   __IOM uint32_t SLEEPCNT;               /*!< Offset: 0x010 (R/W)  Sleep Count Register */
 845:../../STM32F1_files/CMSIS/core_cm3.h ****   __IOM uint32_t LSUCNT;                 /*!< Offset: 0x014 (R/W)  LSU Count Register */
 846:../../STM32F1_files/CMSIS/core_cm3.h ****   __IOM uint32_t FOLDCNT;                /*!< Offset: 0x018 (R/W)  Folded-instruction Count Registe
 847:../../STM32F1_files/CMSIS/core_cm3.h ****   __IM  uint32_t PCSR;                   /*!< Offset: 0x01C (R/ )  Program Counter Sample Register 
 848:../../STM32F1_files/CMSIS/core_cm3.h ****   __IOM uint32_t COMP0;                  /*!< Offset: 0x020 (R/W)  Comparator Register 0 */
 849:../../STM32F1_files/CMSIS/core_cm3.h ****   __IOM uint32_t MASK0;                  /*!< Offset: 0x024 (R/W)  Mask Register 0 */
 850:../../STM32F1_files/CMSIS/core_cm3.h ****   __IOM uint32_t FUNCTION0;              /*!< Offset: 0x028 (R/W)  Function Register 0 */
 851:../../STM32F1_files/CMSIS/core_cm3.h ****         uint32_t RESERVED0[1U];
 852:../../STM32F1_files/CMSIS/core_cm3.h ****   __IOM uint32_t COMP1;                  /*!< Offset: 0x030 (R/W)  Comparator Register 1 */
 853:../../STM32F1_files/CMSIS/core_cm3.h ****   __IOM uint32_t MASK1;                  /*!< Offset: 0x034 (R/W)  Mask Register 1 */
 854:../../STM32F1_files/CMSIS/core_cm3.h ****   __IOM uint32_t FUNCTION1;              /*!< Offset: 0x038 (R/W)  Function Register 1 */
 855:../../STM32F1_files/CMSIS/core_cm3.h ****         uint32_t RESERVED1[1U];
 856:../../STM32F1_files/CMSIS/core_cm3.h ****   __IOM uint32_t COMP2;                  /*!< Offset: 0x040 (R/W)  Comparator Register 2 */
 857:../../STM32F1_files/CMSIS/core_cm3.h ****   __IOM uint32_t MASK2;                  /*!< Offset: 0x044 (R/W)  Mask Register 2 */
 858:../../STM32F1_files/CMSIS/core_cm3.h ****   __IOM uint32_t FUNCTION2;              /*!< Offset: 0x048 (R/W)  Function Register 2 */
 859:../../STM32F1_files/CMSIS/core_cm3.h ****         uint32_t RESERVED2[1U];
 860:../../STM32F1_files/CMSIS/core_cm3.h ****   __IOM uint32_t COMP3;                  /*!< Offset: 0x050 (R/W)  Comparator Register 3 */
 861:../../STM32F1_files/CMSIS/core_cm3.h ****   __IOM uint32_t MASK3;                  /*!< Offset: 0x054 (R/W)  Mask Register 3 */
 862:../../STM32F1_files/CMSIS/core_cm3.h ****   __IOM uint32_t FUNCTION3;              /*!< Offset: 0x058 (R/W)  Function Register 3 */
 863:../../STM32F1_files/CMSIS/core_cm3.h **** } DWT_Type;
 864:../../STM32F1_files/CMSIS/core_cm3.h **** 
 865:../../STM32F1_files/CMSIS/core_cm3.h **** /* DWT Control Register Definitions */
 866:../../STM32F1_files/CMSIS/core_cm3.h **** #define DWT_CTRL_NUMCOMP_Pos               28U                                         /*!< DWT CTR
 867:../../STM32F1_files/CMSIS/core_cm3.h **** #define DWT_CTRL_NUMCOMP_Msk               (0xFUL << DWT_CTRL_NUMCOMP_Pos)             /*!< DWT CTR
 868:../../STM32F1_files/CMSIS/core_cm3.h **** 
 869:../../STM32F1_files/CMSIS/core_cm3.h **** #define DWT_CTRL_NOTRCPKT_Pos              27U                                         /*!< DWT CTR
 870:../../STM32F1_files/CMSIS/core_cm3.h **** #define DWT_CTRL_NOTRCPKT_Msk              (0x1UL << DWT_CTRL_NOTRCPKT_Pos)            /*!< DWT CTR
 871:../../STM32F1_files/CMSIS/core_cm3.h **** 
 872:../../STM32F1_files/CMSIS/core_cm3.h **** #define DWT_CTRL_NOEXTTRIG_Pos             26U                                         /*!< DWT CTR
 873:../../STM32F1_files/CMSIS/core_cm3.h **** #define DWT_CTRL_NOEXTTRIG_Msk             (0x1UL << DWT_CTRL_NOEXTTRIG_Pos)           /*!< DWT CTR
 874:../../STM32F1_files/CMSIS/core_cm3.h **** 
 875:../../STM32F1_files/CMSIS/core_cm3.h **** #define DWT_CTRL_NOCYCCNT_Pos              25U                                         /*!< DWT CTR
 876:../../STM32F1_files/CMSIS/core_cm3.h **** #define DWT_CTRL_NOCYCCNT_Msk              (0x1UL << DWT_CTRL_NOCYCCNT_Pos)            /*!< DWT CTR
 877:../../STM32F1_files/CMSIS/core_cm3.h **** 
 878:../../STM32F1_files/CMSIS/core_cm3.h **** #define DWT_CTRL_NOPRFCNT_Pos              24U                                         /*!< DWT CTR
 879:../../STM32F1_files/CMSIS/core_cm3.h **** #define DWT_CTRL_NOPRFCNT_Msk              (0x1UL << DWT_CTRL_NOPRFCNT_Pos)            /*!< DWT CTR
 880:../../STM32F1_files/CMSIS/core_cm3.h **** 
 881:../../STM32F1_files/CMSIS/core_cm3.h **** #define DWT_CTRL_CYCEVTENA_Pos             22U                                         /*!< DWT CTR
 882:../../STM32F1_files/CMSIS/core_cm3.h **** #define DWT_CTRL_CYCEVTENA_Msk             (0x1UL << DWT_CTRL_CYCEVTENA_Pos)           /*!< DWT CTR
 883:../../STM32F1_files/CMSIS/core_cm3.h **** 
 884:../../STM32F1_files/CMSIS/core_cm3.h **** #define DWT_CTRL_FOLDEVTENA_Pos            21U                                         /*!< DWT CTR
 885:../../STM32F1_files/CMSIS/core_cm3.h **** #define DWT_CTRL_FOLDEVTENA_Msk            (0x1UL << DWT_CTRL_FOLDEVTENA_Pos)          /*!< DWT CTR
 886:../../STM32F1_files/CMSIS/core_cm3.h **** 
 887:../../STM32F1_files/CMSIS/core_cm3.h **** #define DWT_CTRL_LSUEVTENA_Pos             20U                                         /*!< DWT CTR
 888:../../STM32F1_files/CMSIS/core_cm3.h **** #define DWT_CTRL_LSUEVTENA_Msk             (0x1UL << DWT_CTRL_LSUEVTENA_Pos)           /*!< DWT CTR
 889:../../STM32F1_files/CMSIS/core_cm3.h **** 
 890:../../STM32F1_files/CMSIS/core_cm3.h **** #define DWT_CTRL_SLEEPEVTENA_Pos           19U                                         /*!< DWT CTR
 891:../../STM32F1_files/CMSIS/core_cm3.h **** #define DWT_CTRL_SLEEPEVTENA_Msk           (0x1UL << DWT_CTRL_SLEEPEVTENA_Pos)         /*!< DWT CTR
 892:../../STM32F1_files/CMSIS/core_cm3.h **** 
 893:../../STM32F1_files/CMSIS/core_cm3.h **** #define DWT_CTRL_EXCEVTENA_Pos             18U                                         /*!< DWT CTR
 894:../../STM32F1_files/CMSIS/core_cm3.h **** #define DWT_CTRL_EXCEVTENA_Msk             (0x1UL << DWT_CTRL_EXCEVTENA_Pos)           /*!< DWT CTR
ARM GAS  /tmp/ccaB5zJT.s 			page 67


 895:../../STM32F1_files/CMSIS/core_cm3.h **** 
 896:../../STM32F1_files/CMSIS/core_cm3.h **** #define DWT_CTRL_CPIEVTENA_Pos             17U                                         /*!< DWT CTR
 897:../../STM32F1_files/CMSIS/core_cm3.h **** #define DWT_CTRL_CPIEVTENA_Msk             (0x1UL << DWT_CTRL_CPIEVTENA_Pos)           /*!< DWT CTR
 898:../../STM32F1_files/CMSIS/core_cm3.h **** 
 899:../../STM32F1_files/CMSIS/core_cm3.h **** #define DWT_CTRL_EXCTRCENA_Pos             16U                                         /*!< DWT CTR
 900:../../STM32F1_files/CMSIS/core_cm3.h **** #define DWT_CTRL_EXCTRCENA_Msk             (0x1UL << DWT_CTRL_EXCTRCENA_Pos)           /*!< DWT CTR
 901:../../STM32F1_files/CMSIS/core_cm3.h **** 
 902:../../STM32F1_files/CMSIS/core_cm3.h **** #define DWT_CTRL_PCSAMPLENA_Pos            12U                                         /*!< DWT CTR
 903:../../STM32F1_files/CMSIS/core_cm3.h **** #define DWT_CTRL_PCSAMPLENA_Msk            (0x1UL << DWT_CTRL_PCSAMPLENA_Pos)          /*!< DWT CTR
 904:../../STM32F1_files/CMSIS/core_cm3.h **** 
 905:../../STM32F1_files/CMSIS/core_cm3.h **** #define DWT_CTRL_SYNCTAP_Pos               10U                                         /*!< DWT CTR
 906:../../STM32F1_files/CMSIS/core_cm3.h **** #define DWT_CTRL_SYNCTAP_Msk               (0x3UL << DWT_CTRL_SYNCTAP_Pos)             /*!< DWT CTR
 907:../../STM32F1_files/CMSIS/core_cm3.h **** 
 908:../../STM32F1_files/CMSIS/core_cm3.h **** #define DWT_CTRL_CYCTAP_Pos                 9U                                         /*!< DWT CTR
 909:../../STM32F1_files/CMSIS/core_cm3.h **** #define DWT_CTRL_CYCTAP_Msk                (0x1UL << DWT_CTRL_CYCTAP_Pos)              /*!< DWT CTR
 910:../../STM32F1_files/CMSIS/core_cm3.h **** 
 911:../../STM32F1_files/CMSIS/core_cm3.h **** #define DWT_CTRL_POSTINIT_Pos               5U                                         /*!< DWT CTR
 912:../../STM32F1_files/CMSIS/core_cm3.h **** #define DWT_CTRL_POSTINIT_Msk              (0xFUL << DWT_CTRL_POSTINIT_Pos)            /*!< DWT CTR
 913:../../STM32F1_files/CMSIS/core_cm3.h **** 
 914:../../STM32F1_files/CMSIS/core_cm3.h **** #define DWT_CTRL_POSTPRESET_Pos             1U                                         /*!< DWT CTR
 915:../../STM32F1_files/CMSIS/core_cm3.h **** #define DWT_CTRL_POSTPRESET_Msk            (0xFUL << DWT_CTRL_POSTPRESET_Pos)          /*!< DWT CTR
 916:../../STM32F1_files/CMSIS/core_cm3.h **** 
 917:../../STM32F1_files/CMSIS/core_cm3.h **** #define DWT_CTRL_CYCCNTENA_Pos              0U                                         /*!< DWT CTR
 918:../../STM32F1_files/CMSIS/core_cm3.h **** #define DWT_CTRL_CYCCNTENA_Msk             (0x1UL /*<< DWT_CTRL_CYCCNTENA_Pos*/)       /*!< DWT CTR
 919:../../STM32F1_files/CMSIS/core_cm3.h **** 
 920:../../STM32F1_files/CMSIS/core_cm3.h **** /* DWT CPI Count Register Definitions */
 921:../../STM32F1_files/CMSIS/core_cm3.h **** #define DWT_CPICNT_CPICNT_Pos               0U                                         /*!< DWT CPI
 922:../../STM32F1_files/CMSIS/core_cm3.h **** #define DWT_CPICNT_CPICNT_Msk              (0xFFUL /*<< DWT_CPICNT_CPICNT_Pos*/)       /*!< DWT CPI
 923:../../STM32F1_files/CMSIS/core_cm3.h **** 
 924:../../STM32F1_files/CMSIS/core_cm3.h **** /* DWT Exception Overhead Count Register Definitions */
 925:../../STM32F1_files/CMSIS/core_cm3.h **** #define DWT_EXCCNT_EXCCNT_Pos               0U                                         /*!< DWT EXC
 926:../../STM32F1_files/CMSIS/core_cm3.h **** #define DWT_EXCCNT_EXCCNT_Msk              (0xFFUL /*<< DWT_EXCCNT_EXCCNT_Pos*/)       /*!< DWT EXC
 927:../../STM32F1_files/CMSIS/core_cm3.h **** 
 928:../../STM32F1_files/CMSIS/core_cm3.h **** /* DWT Sleep Count Register Definitions */
 929:../../STM32F1_files/CMSIS/core_cm3.h **** #define DWT_SLEEPCNT_SLEEPCNT_Pos           0U                                         /*!< DWT SLE
 930:../../STM32F1_files/CMSIS/core_cm3.h **** #define DWT_SLEEPCNT_SLEEPCNT_Msk          (0xFFUL /*<< DWT_SLEEPCNT_SLEEPCNT_Pos*/)   /*!< DWT SLE
 931:../../STM32F1_files/CMSIS/core_cm3.h **** 
 932:../../STM32F1_files/CMSIS/core_cm3.h **** /* DWT LSU Count Register Definitions */
 933:../../STM32F1_files/CMSIS/core_cm3.h **** #define DWT_LSUCNT_LSUCNT_Pos               0U                                         /*!< DWT LSU
 934:../../STM32F1_files/CMSIS/core_cm3.h **** #define DWT_LSUCNT_LSUCNT_Msk              (0xFFUL /*<< DWT_LSUCNT_LSUCNT_Pos*/)       /*!< DWT LSU
 935:../../STM32F1_files/CMSIS/core_cm3.h **** 
 936:../../STM32F1_files/CMSIS/core_cm3.h **** /* DWT Folded-instruction Count Register Definitions */
 937:../../STM32F1_files/CMSIS/core_cm3.h **** #define DWT_FOLDCNT_FOLDCNT_Pos             0U                                         /*!< DWT FOL
 938:../../STM32F1_files/CMSIS/core_cm3.h **** #define DWT_FOLDCNT_FOLDCNT_Msk            (0xFFUL /*<< DWT_FOLDCNT_FOLDCNT_Pos*/)     /*!< DWT FOL
 939:../../STM32F1_files/CMSIS/core_cm3.h **** 
 940:../../STM32F1_files/CMSIS/core_cm3.h **** /* DWT Comparator Mask Register Definitions */
 941:../../STM32F1_files/CMSIS/core_cm3.h **** #define DWT_MASK_MASK_Pos                   0U                                         /*!< DWT MAS
 942:../../STM32F1_files/CMSIS/core_cm3.h **** #define DWT_MASK_MASK_Msk                  (0x1FUL /*<< DWT_MASK_MASK_Pos*/)           /*!< DWT MAS
 943:../../STM32F1_files/CMSIS/core_cm3.h **** 
 944:../../STM32F1_files/CMSIS/core_cm3.h **** /* DWT Comparator Function Register Definitions */
 945:../../STM32F1_files/CMSIS/core_cm3.h **** #define DWT_FUNCTION_MATCHED_Pos           24U                                         /*!< DWT FUN
 946:../../STM32F1_files/CMSIS/core_cm3.h **** #define DWT_FUNCTION_MATCHED_Msk           (0x1UL << DWT_FUNCTION_MATCHED_Pos)         /*!< DWT FUN
 947:../../STM32F1_files/CMSIS/core_cm3.h **** 
 948:../../STM32F1_files/CMSIS/core_cm3.h **** #define DWT_FUNCTION_DATAVADDR1_Pos        16U                                         /*!< DWT FUN
 949:../../STM32F1_files/CMSIS/core_cm3.h **** #define DWT_FUNCTION_DATAVADDR1_Msk        (0xFUL << DWT_FUNCTION_DATAVADDR1_Pos)      /*!< DWT FUN
 950:../../STM32F1_files/CMSIS/core_cm3.h **** 
 951:../../STM32F1_files/CMSIS/core_cm3.h **** #define DWT_FUNCTION_DATAVADDR0_Pos        12U                                         /*!< DWT FUN
ARM GAS  /tmp/ccaB5zJT.s 			page 68


 952:../../STM32F1_files/CMSIS/core_cm3.h **** #define DWT_FUNCTION_DATAVADDR0_Msk        (0xFUL << DWT_FUNCTION_DATAVADDR0_Pos)      /*!< DWT FUN
 953:../../STM32F1_files/CMSIS/core_cm3.h **** 
 954:../../STM32F1_files/CMSIS/core_cm3.h **** #define DWT_FUNCTION_DATAVSIZE_Pos         10U                                         /*!< DWT FUN
 955:../../STM32F1_files/CMSIS/core_cm3.h **** #define DWT_FUNCTION_DATAVSIZE_Msk         (0x3UL << DWT_FUNCTION_DATAVSIZE_Pos)       /*!< DWT FUN
 956:../../STM32F1_files/CMSIS/core_cm3.h **** 
 957:../../STM32F1_files/CMSIS/core_cm3.h **** #define DWT_FUNCTION_LNK1ENA_Pos            9U                                         /*!< DWT FUN
 958:../../STM32F1_files/CMSIS/core_cm3.h **** #define DWT_FUNCTION_LNK1ENA_Msk           (0x1UL << DWT_FUNCTION_LNK1ENA_Pos)         /*!< DWT FUN
 959:../../STM32F1_files/CMSIS/core_cm3.h **** 
 960:../../STM32F1_files/CMSIS/core_cm3.h **** #define DWT_FUNCTION_DATAVMATCH_Pos         8U                                         /*!< DWT FUN
 961:../../STM32F1_files/CMSIS/core_cm3.h **** #define DWT_FUNCTION_DATAVMATCH_Msk        (0x1UL << DWT_FUNCTION_DATAVMATCH_Pos)      /*!< DWT FUN
 962:../../STM32F1_files/CMSIS/core_cm3.h **** 
 963:../../STM32F1_files/CMSIS/core_cm3.h **** #define DWT_FUNCTION_CYCMATCH_Pos           7U                                         /*!< DWT FUN
 964:../../STM32F1_files/CMSIS/core_cm3.h **** #define DWT_FUNCTION_CYCMATCH_Msk          (0x1UL << DWT_FUNCTION_CYCMATCH_Pos)        /*!< DWT FUN
 965:../../STM32F1_files/CMSIS/core_cm3.h **** 
 966:../../STM32F1_files/CMSIS/core_cm3.h **** #define DWT_FUNCTION_EMITRANGE_Pos          5U                                         /*!< DWT FUN
 967:../../STM32F1_files/CMSIS/core_cm3.h **** #define DWT_FUNCTION_EMITRANGE_Msk         (0x1UL << DWT_FUNCTION_EMITRANGE_Pos)       /*!< DWT FUN
 968:../../STM32F1_files/CMSIS/core_cm3.h **** 
 969:../../STM32F1_files/CMSIS/core_cm3.h **** #define DWT_FUNCTION_FUNCTION_Pos           0U                                         /*!< DWT FUN
 970:../../STM32F1_files/CMSIS/core_cm3.h **** #define DWT_FUNCTION_FUNCTION_Msk          (0xFUL /*<< DWT_FUNCTION_FUNCTION_Pos*/)    /*!< DWT FUN
 971:../../STM32F1_files/CMSIS/core_cm3.h **** 
 972:../../STM32F1_files/CMSIS/core_cm3.h **** /*@}*/ /* end of group CMSIS_DWT */
 973:../../STM32F1_files/CMSIS/core_cm3.h **** 
 974:../../STM32F1_files/CMSIS/core_cm3.h **** 
 975:../../STM32F1_files/CMSIS/core_cm3.h **** /**
 976:../../STM32F1_files/CMSIS/core_cm3.h ****   \ingroup  CMSIS_core_register
 977:../../STM32F1_files/CMSIS/core_cm3.h ****   \defgroup CMSIS_TPI     Trace Port Interface (TPI)
 978:../../STM32F1_files/CMSIS/core_cm3.h ****   \brief    Type definitions for the Trace Port Interface (TPI)
 979:../../STM32F1_files/CMSIS/core_cm3.h ****   @{
 980:../../STM32F1_files/CMSIS/core_cm3.h ****  */
 981:../../STM32F1_files/CMSIS/core_cm3.h **** 
 982:../../STM32F1_files/CMSIS/core_cm3.h **** /**
 983:../../STM32F1_files/CMSIS/core_cm3.h ****   \brief  Structure type to access the Trace Port Interface Register (TPI).
 984:../../STM32F1_files/CMSIS/core_cm3.h ****  */
 985:../../STM32F1_files/CMSIS/core_cm3.h **** typedef struct
 986:../../STM32F1_files/CMSIS/core_cm3.h **** {
 987:../../STM32F1_files/CMSIS/core_cm3.h ****   __IOM uint32_t SSPSR;                  /*!< Offset: 0x000 (R/ )  Supported Parallel Port Size Reg
 988:../../STM32F1_files/CMSIS/core_cm3.h ****   __IOM uint32_t CSPSR;                  /*!< Offset: 0x004 (R/W)  Current Parallel Port Size Regis
 989:../../STM32F1_files/CMSIS/core_cm3.h ****         uint32_t RESERVED0[2U];
 990:../../STM32F1_files/CMSIS/core_cm3.h ****   __IOM uint32_t ACPR;                   /*!< Offset: 0x010 (R/W)  Asynchronous Clock Prescaler Reg
 991:../../STM32F1_files/CMSIS/core_cm3.h ****         uint32_t RESERVED1[55U];
 992:../../STM32F1_files/CMSIS/core_cm3.h ****   __IOM uint32_t SPPR;                   /*!< Offset: 0x0F0 (R/W)  Selected Pin Protocol Register *
 993:../../STM32F1_files/CMSIS/core_cm3.h ****         uint32_t RESERVED2[131U];
 994:../../STM32F1_files/CMSIS/core_cm3.h ****   __IM  uint32_t FFSR;                   /*!< Offset: 0x300 (R/ )  Formatter and Flush Status Regis
 995:../../STM32F1_files/CMSIS/core_cm3.h ****   __IOM uint32_t FFCR;                   /*!< Offset: 0x304 (R/W)  Formatter and Flush Control Regi
 996:../../STM32F1_files/CMSIS/core_cm3.h ****   __IM  uint32_t FSCR;                   /*!< Offset: 0x308 (R/ )  Formatter Synchronization Counte
 997:../../STM32F1_files/CMSIS/core_cm3.h ****         uint32_t RESERVED3[759U];
 998:../../STM32F1_files/CMSIS/core_cm3.h ****   __IM  uint32_t TRIGGER;                /*!< Offset: 0xEE8 (R/ )  TRIGGER */
 999:../../STM32F1_files/CMSIS/core_cm3.h ****   __IM  uint32_t FIFO0;                  /*!< Offset: 0xEEC (R/ )  Integration ETM Data */
1000:../../STM32F1_files/CMSIS/core_cm3.h ****   __IM  uint32_t ITATBCTR2;              /*!< Offset: 0xEF0 (R/ )  ITATBCTR2 */
1001:../../STM32F1_files/CMSIS/core_cm3.h ****         uint32_t RESERVED4[1U];
1002:../../STM32F1_files/CMSIS/core_cm3.h ****   __IM  uint32_t ITATBCTR0;              /*!< Offset: 0xEF8 (R/ )  ITATBCTR0 */
1003:../../STM32F1_files/CMSIS/core_cm3.h ****   __IM  uint32_t FIFO1;                  /*!< Offset: 0xEFC (R/ )  Integration ITM Data */
1004:../../STM32F1_files/CMSIS/core_cm3.h ****   __IOM uint32_t ITCTRL;                 /*!< Offset: 0xF00 (R/W)  Integration Mode Control */
1005:../../STM32F1_files/CMSIS/core_cm3.h ****         uint32_t RESERVED5[39U];
1006:../../STM32F1_files/CMSIS/core_cm3.h ****   __IOM uint32_t CLAIMSET;               /*!< Offset: 0xFA0 (R/W)  Claim tag set */
1007:../../STM32F1_files/CMSIS/core_cm3.h ****   __IOM uint32_t CLAIMCLR;               /*!< Offset: 0xFA4 (R/W)  Claim tag clear */
1008:../../STM32F1_files/CMSIS/core_cm3.h ****         uint32_t RESERVED7[8U];
ARM GAS  /tmp/ccaB5zJT.s 			page 69


1009:../../STM32F1_files/CMSIS/core_cm3.h ****   __IM  uint32_t DEVID;                  /*!< Offset: 0xFC8 (R/ )  TPIU_DEVID */
1010:../../STM32F1_files/CMSIS/core_cm3.h ****   __IM  uint32_t DEVTYPE;                /*!< Offset: 0xFCC (R/ )  TPIU_DEVTYPE */
1011:../../STM32F1_files/CMSIS/core_cm3.h **** } TPI_Type;
1012:../../STM32F1_files/CMSIS/core_cm3.h **** 
1013:../../STM32F1_files/CMSIS/core_cm3.h **** /* TPI Asynchronous Clock Prescaler Register Definitions */
1014:../../STM32F1_files/CMSIS/core_cm3.h **** #define TPI_ACPR_PRESCALER_Pos              0U                                         /*!< TPI ACP
1015:../../STM32F1_files/CMSIS/core_cm3.h **** #define TPI_ACPR_PRESCALER_Msk             (0x1FFFUL /*<< TPI_ACPR_PRESCALER_Pos*/)    /*!< TPI ACP
1016:../../STM32F1_files/CMSIS/core_cm3.h **** 
1017:../../STM32F1_files/CMSIS/core_cm3.h **** /* TPI Selected Pin Protocol Register Definitions */
1018:../../STM32F1_files/CMSIS/core_cm3.h **** #define TPI_SPPR_TXMODE_Pos                 0U                                         /*!< TPI SPP
1019:../../STM32F1_files/CMSIS/core_cm3.h **** #define TPI_SPPR_TXMODE_Msk                (0x3UL /*<< TPI_SPPR_TXMODE_Pos*/)          /*!< TPI SPP
1020:../../STM32F1_files/CMSIS/core_cm3.h **** 
1021:../../STM32F1_files/CMSIS/core_cm3.h **** /* TPI Formatter and Flush Status Register Definitions */
1022:../../STM32F1_files/CMSIS/core_cm3.h **** #define TPI_FFSR_FtNonStop_Pos              3U                                         /*!< TPI FFS
1023:../../STM32F1_files/CMSIS/core_cm3.h **** #define TPI_FFSR_FtNonStop_Msk             (0x1UL << TPI_FFSR_FtNonStop_Pos)           /*!< TPI FFS
1024:../../STM32F1_files/CMSIS/core_cm3.h **** 
1025:../../STM32F1_files/CMSIS/core_cm3.h **** #define TPI_FFSR_TCPresent_Pos              2U                                         /*!< TPI FFS
1026:../../STM32F1_files/CMSIS/core_cm3.h **** #define TPI_FFSR_TCPresent_Msk             (0x1UL << TPI_FFSR_TCPresent_Pos)           /*!< TPI FFS
1027:../../STM32F1_files/CMSIS/core_cm3.h **** 
1028:../../STM32F1_files/CMSIS/core_cm3.h **** #define TPI_FFSR_FtStopped_Pos              1U                                         /*!< TPI FFS
1029:../../STM32F1_files/CMSIS/core_cm3.h **** #define TPI_FFSR_FtStopped_Msk             (0x1UL << TPI_FFSR_FtStopped_Pos)           /*!< TPI FFS
1030:../../STM32F1_files/CMSIS/core_cm3.h **** 
1031:../../STM32F1_files/CMSIS/core_cm3.h **** #define TPI_FFSR_FlInProg_Pos               0U                                         /*!< TPI FFS
1032:../../STM32F1_files/CMSIS/core_cm3.h **** #define TPI_FFSR_FlInProg_Msk              (0x1UL /*<< TPI_FFSR_FlInProg_Pos*/)        /*!< TPI FFS
1033:../../STM32F1_files/CMSIS/core_cm3.h **** 
1034:../../STM32F1_files/CMSIS/core_cm3.h **** /* TPI Formatter and Flush Control Register Definitions */
1035:../../STM32F1_files/CMSIS/core_cm3.h **** #define TPI_FFCR_TrigIn_Pos                 8U                                         /*!< TPI FFC
1036:../../STM32F1_files/CMSIS/core_cm3.h **** #define TPI_FFCR_TrigIn_Msk                (0x1UL << TPI_FFCR_TrigIn_Pos)              /*!< TPI FFC
1037:../../STM32F1_files/CMSIS/core_cm3.h **** 
1038:../../STM32F1_files/CMSIS/core_cm3.h **** #define TPI_FFCR_EnFCont_Pos                1U                                         /*!< TPI FFC
1039:../../STM32F1_files/CMSIS/core_cm3.h **** #define TPI_FFCR_EnFCont_Msk               (0x1UL << TPI_FFCR_EnFCont_Pos)             /*!< TPI FFC
1040:../../STM32F1_files/CMSIS/core_cm3.h **** 
1041:../../STM32F1_files/CMSIS/core_cm3.h **** /* TPI TRIGGER Register Definitions */
1042:../../STM32F1_files/CMSIS/core_cm3.h **** #define TPI_TRIGGER_TRIGGER_Pos             0U                                         /*!< TPI TRI
1043:../../STM32F1_files/CMSIS/core_cm3.h **** #define TPI_TRIGGER_TRIGGER_Msk            (0x1UL /*<< TPI_TRIGGER_TRIGGER_Pos*/)      /*!< TPI TRI
1044:../../STM32F1_files/CMSIS/core_cm3.h **** 
1045:../../STM32F1_files/CMSIS/core_cm3.h **** /* TPI Integration ETM Data Register Definitions (FIFO0) */
1046:../../STM32F1_files/CMSIS/core_cm3.h **** #define TPI_FIFO0_ITM_ATVALID_Pos          29U                                         /*!< TPI FIF
1047:../../STM32F1_files/CMSIS/core_cm3.h **** #define TPI_FIFO0_ITM_ATVALID_Msk          (0x3UL << TPI_FIFO0_ITM_ATVALID_Pos)        /*!< TPI FIF
1048:../../STM32F1_files/CMSIS/core_cm3.h **** 
1049:../../STM32F1_files/CMSIS/core_cm3.h **** #define TPI_FIFO0_ITM_bytecount_Pos        27U                                         /*!< TPI FIF
1050:../../STM32F1_files/CMSIS/core_cm3.h **** #define TPI_FIFO0_ITM_bytecount_Msk        (0x3UL << TPI_FIFO0_ITM_bytecount_Pos)      /*!< TPI FIF
1051:../../STM32F1_files/CMSIS/core_cm3.h **** 
1052:../../STM32F1_files/CMSIS/core_cm3.h **** #define TPI_FIFO0_ETM_ATVALID_Pos          26U                                         /*!< TPI FIF
1053:../../STM32F1_files/CMSIS/core_cm3.h **** #define TPI_FIFO0_ETM_ATVALID_Msk          (0x3UL << TPI_FIFO0_ETM_ATVALID_Pos)        /*!< TPI FIF
1054:../../STM32F1_files/CMSIS/core_cm3.h **** 
1055:../../STM32F1_files/CMSIS/core_cm3.h **** #define TPI_FIFO0_ETM_bytecount_Pos        24U                                         /*!< TPI FIF
1056:../../STM32F1_files/CMSIS/core_cm3.h **** #define TPI_FIFO0_ETM_bytecount_Msk        (0x3UL << TPI_FIFO0_ETM_bytecount_Pos)      /*!< TPI FIF
1057:../../STM32F1_files/CMSIS/core_cm3.h **** 
1058:../../STM32F1_files/CMSIS/core_cm3.h **** #define TPI_FIFO0_ETM2_Pos                 16U                                         /*!< TPI FIF
1059:../../STM32F1_files/CMSIS/core_cm3.h **** #define TPI_FIFO0_ETM2_Msk                 (0xFFUL << TPI_FIFO0_ETM2_Pos)              /*!< TPI FIF
1060:../../STM32F1_files/CMSIS/core_cm3.h **** 
1061:../../STM32F1_files/CMSIS/core_cm3.h **** #define TPI_FIFO0_ETM1_Pos                  8U                                         /*!< TPI FIF
1062:../../STM32F1_files/CMSIS/core_cm3.h **** #define TPI_FIFO0_ETM1_Msk                 (0xFFUL << TPI_FIFO0_ETM1_Pos)              /*!< TPI FIF
1063:../../STM32F1_files/CMSIS/core_cm3.h **** 
1064:../../STM32F1_files/CMSIS/core_cm3.h **** #define TPI_FIFO0_ETM0_Pos                  0U                                         /*!< TPI FIF
1065:../../STM32F1_files/CMSIS/core_cm3.h **** #define TPI_FIFO0_ETM0_Msk                 (0xFFUL /*<< TPI_FIFO0_ETM0_Pos*/)          /*!< TPI FIF
ARM GAS  /tmp/ccaB5zJT.s 			page 70


1066:../../STM32F1_files/CMSIS/core_cm3.h **** 
1067:../../STM32F1_files/CMSIS/core_cm3.h **** /* TPI ITATBCTR2 Register Definitions */
1068:../../STM32F1_files/CMSIS/core_cm3.h **** #define TPI_ITATBCTR2_ATREADY_Pos           0U                                         /*!< TPI ITA
1069:../../STM32F1_files/CMSIS/core_cm3.h **** #define TPI_ITATBCTR2_ATREADY_Msk          (0x1UL /*<< TPI_ITATBCTR2_ATREADY_Pos*/)    /*!< TPI ITA
1070:../../STM32F1_files/CMSIS/core_cm3.h **** 
1071:../../STM32F1_files/CMSIS/core_cm3.h **** /* TPI Integration ITM Data Register Definitions (FIFO1) */
1072:../../STM32F1_files/CMSIS/core_cm3.h **** #define TPI_FIFO1_ITM_ATVALID_Pos          29U                                         /*!< TPI FIF
1073:../../STM32F1_files/CMSIS/core_cm3.h **** #define TPI_FIFO1_ITM_ATVALID_Msk          (0x3UL << TPI_FIFO1_ITM_ATVALID_Pos)        /*!< TPI FIF
1074:../../STM32F1_files/CMSIS/core_cm3.h **** 
1075:../../STM32F1_files/CMSIS/core_cm3.h **** #define TPI_FIFO1_ITM_bytecount_Pos        27U                                         /*!< TPI FIF
1076:../../STM32F1_files/CMSIS/core_cm3.h **** #define TPI_FIFO1_ITM_bytecount_Msk        (0x3UL << TPI_FIFO1_ITM_bytecount_Pos)      /*!< TPI FIF
1077:../../STM32F1_files/CMSIS/core_cm3.h **** 
1078:../../STM32F1_files/CMSIS/core_cm3.h **** #define TPI_FIFO1_ETM_ATVALID_Pos          26U                                         /*!< TPI FIF
1079:../../STM32F1_files/CMSIS/core_cm3.h **** #define TPI_FIFO1_ETM_ATVALID_Msk          (0x3UL << TPI_FIFO1_ETM_ATVALID_Pos)        /*!< TPI FIF
1080:../../STM32F1_files/CMSIS/core_cm3.h **** 
1081:../../STM32F1_files/CMSIS/core_cm3.h **** #define TPI_FIFO1_ETM_bytecount_Pos        24U                                         /*!< TPI FIF
1082:../../STM32F1_files/CMSIS/core_cm3.h **** #define TPI_FIFO1_ETM_bytecount_Msk        (0x3UL << TPI_FIFO1_ETM_bytecount_Pos)      /*!< TPI FIF
1083:../../STM32F1_files/CMSIS/core_cm3.h **** 
1084:../../STM32F1_files/CMSIS/core_cm3.h **** #define TPI_FIFO1_ITM2_Pos                 16U                                         /*!< TPI FIF
1085:../../STM32F1_files/CMSIS/core_cm3.h **** #define TPI_FIFO1_ITM2_Msk                 (0xFFUL << TPI_FIFO1_ITM2_Pos)              /*!< TPI FIF
1086:../../STM32F1_files/CMSIS/core_cm3.h **** 
1087:../../STM32F1_files/CMSIS/core_cm3.h **** #define TPI_FIFO1_ITM1_Pos                  8U                                         /*!< TPI FIF
1088:../../STM32F1_files/CMSIS/core_cm3.h **** #define TPI_FIFO1_ITM1_Msk                 (0xFFUL << TPI_FIFO1_ITM1_Pos)              /*!< TPI FIF
1089:../../STM32F1_files/CMSIS/core_cm3.h **** 
1090:../../STM32F1_files/CMSIS/core_cm3.h **** #define TPI_FIFO1_ITM0_Pos                  0U                                         /*!< TPI FIF
1091:../../STM32F1_files/CMSIS/core_cm3.h **** #define TPI_FIFO1_ITM0_Msk                 (0xFFUL /*<< TPI_FIFO1_ITM0_Pos*/)          /*!< TPI FIF
1092:../../STM32F1_files/CMSIS/core_cm3.h **** 
1093:../../STM32F1_files/CMSIS/core_cm3.h **** /* TPI ITATBCTR0 Register Definitions */
1094:../../STM32F1_files/CMSIS/core_cm3.h **** #define TPI_ITATBCTR0_ATREADY_Pos           0U                                         /*!< TPI ITA
1095:../../STM32F1_files/CMSIS/core_cm3.h **** #define TPI_ITATBCTR0_ATREADY_Msk          (0x1UL /*<< TPI_ITATBCTR0_ATREADY_Pos*/)    /*!< TPI ITA
1096:../../STM32F1_files/CMSIS/core_cm3.h **** 
1097:../../STM32F1_files/CMSIS/core_cm3.h **** /* TPI Integration Mode Control Register Definitions */
1098:../../STM32F1_files/CMSIS/core_cm3.h **** #define TPI_ITCTRL_Mode_Pos                 0U                                         /*!< TPI ITC
1099:../../STM32F1_files/CMSIS/core_cm3.h **** #define TPI_ITCTRL_Mode_Msk                (0x1UL /*<< TPI_ITCTRL_Mode_Pos*/)          /*!< TPI ITC
1100:../../STM32F1_files/CMSIS/core_cm3.h **** 
1101:../../STM32F1_files/CMSIS/core_cm3.h **** /* TPI DEVID Register Definitions */
1102:../../STM32F1_files/CMSIS/core_cm3.h **** #define TPI_DEVID_NRZVALID_Pos             11U                                         /*!< TPI DEV
1103:../../STM32F1_files/CMSIS/core_cm3.h **** #define TPI_DEVID_NRZVALID_Msk             (0x1UL << TPI_DEVID_NRZVALID_Pos)           /*!< TPI DEV
1104:../../STM32F1_files/CMSIS/core_cm3.h **** 
1105:../../STM32F1_files/CMSIS/core_cm3.h **** #define TPI_DEVID_MANCVALID_Pos            10U                                         /*!< TPI DEV
1106:../../STM32F1_files/CMSIS/core_cm3.h **** #define TPI_DEVID_MANCVALID_Msk            (0x1UL << TPI_DEVID_MANCVALID_Pos)          /*!< TPI DEV
1107:../../STM32F1_files/CMSIS/core_cm3.h **** 
1108:../../STM32F1_files/CMSIS/core_cm3.h **** #define TPI_DEVID_PTINVALID_Pos             9U                                         /*!< TPI DEV
1109:../../STM32F1_files/CMSIS/core_cm3.h **** #define TPI_DEVID_PTINVALID_Msk            (0x1UL << TPI_DEVID_PTINVALID_Pos)          /*!< TPI DEV
1110:../../STM32F1_files/CMSIS/core_cm3.h **** 
1111:../../STM32F1_files/CMSIS/core_cm3.h **** #define TPI_DEVID_MinBufSz_Pos              6U                                         /*!< TPI DEV
1112:../../STM32F1_files/CMSIS/core_cm3.h **** #define TPI_DEVID_MinBufSz_Msk             (0x7UL << TPI_DEVID_MinBufSz_Pos)           /*!< TPI DEV
1113:../../STM32F1_files/CMSIS/core_cm3.h **** 
1114:../../STM32F1_files/CMSIS/core_cm3.h **** #define TPI_DEVID_AsynClkIn_Pos             5U                                         /*!< TPI DEV
1115:../../STM32F1_files/CMSIS/core_cm3.h **** #define TPI_DEVID_AsynClkIn_Msk            (0x1UL << TPI_DEVID_AsynClkIn_Pos)          /*!< TPI DEV
1116:../../STM32F1_files/CMSIS/core_cm3.h **** 
1117:../../STM32F1_files/CMSIS/core_cm3.h **** #define TPI_DEVID_NrTraceInput_Pos          0U                                         /*!< TPI DEV
1118:../../STM32F1_files/CMSIS/core_cm3.h **** #define TPI_DEVID_NrTraceInput_Msk         (0x1FUL /*<< TPI_DEVID_NrTraceInput_Pos*/)  /*!< TPI DEV
1119:../../STM32F1_files/CMSIS/core_cm3.h **** 
1120:../../STM32F1_files/CMSIS/core_cm3.h **** /* TPI DEVTYPE Register Definitions */
1121:../../STM32F1_files/CMSIS/core_cm3.h **** #define TPI_DEVTYPE_MajorType_Pos           4U                                         /*!< TPI DEV
1122:../../STM32F1_files/CMSIS/core_cm3.h **** #define TPI_DEVTYPE_MajorType_Msk          (0xFUL << TPI_DEVTYPE_MajorType_Pos)        /*!< TPI DEV
ARM GAS  /tmp/ccaB5zJT.s 			page 71


1123:../../STM32F1_files/CMSIS/core_cm3.h **** 
1124:../../STM32F1_files/CMSIS/core_cm3.h **** #define TPI_DEVTYPE_SubType_Pos             0U                                         /*!< TPI DEV
1125:../../STM32F1_files/CMSIS/core_cm3.h **** #define TPI_DEVTYPE_SubType_Msk            (0xFUL /*<< TPI_DEVTYPE_SubType_Pos*/)      /*!< TPI DEV
1126:../../STM32F1_files/CMSIS/core_cm3.h **** 
1127:../../STM32F1_files/CMSIS/core_cm3.h **** /*@}*/ /* end of group CMSIS_TPI */
1128:../../STM32F1_files/CMSIS/core_cm3.h **** 
1129:../../STM32F1_files/CMSIS/core_cm3.h **** 
1130:../../STM32F1_files/CMSIS/core_cm3.h **** #if (__MPU_PRESENT == 1U)
1131:../../STM32F1_files/CMSIS/core_cm3.h **** /**
1132:../../STM32F1_files/CMSIS/core_cm3.h ****   \ingroup  CMSIS_core_register
1133:../../STM32F1_files/CMSIS/core_cm3.h ****   \defgroup CMSIS_MPU     Memory Protection Unit (MPU)
1134:../../STM32F1_files/CMSIS/core_cm3.h ****   \brief    Type definitions for the Memory Protection Unit (MPU)
1135:../../STM32F1_files/CMSIS/core_cm3.h ****   @{
1136:../../STM32F1_files/CMSIS/core_cm3.h ****  */
1137:../../STM32F1_files/CMSIS/core_cm3.h **** 
1138:../../STM32F1_files/CMSIS/core_cm3.h **** /**
1139:../../STM32F1_files/CMSIS/core_cm3.h ****   \brief  Structure type to access the Memory Protection Unit (MPU).
1140:../../STM32F1_files/CMSIS/core_cm3.h ****  */
1141:../../STM32F1_files/CMSIS/core_cm3.h **** typedef struct
1142:../../STM32F1_files/CMSIS/core_cm3.h **** {
1143:../../STM32F1_files/CMSIS/core_cm3.h ****   __IM  uint32_t TYPE;                   /*!< Offset: 0x000 (R/ )  MPU Type Register */
1144:../../STM32F1_files/CMSIS/core_cm3.h ****   __IOM uint32_t CTRL;                   /*!< Offset: 0x004 (R/W)  MPU Control Register */
1145:../../STM32F1_files/CMSIS/core_cm3.h ****   __IOM uint32_t RNR;                    /*!< Offset: 0x008 (R/W)  MPU Region RNRber Register */
1146:../../STM32F1_files/CMSIS/core_cm3.h ****   __IOM uint32_t RBAR;                   /*!< Offset: 0x00C (R/W)  MPU Region Base Address Register
1147:../../STM32F1_files/CMSIS/core_cm3.h ****   __IOM uint32_t RASR;                   /*!< Offset: 0x010 (R/W)  MPU Region Attribute and Size Re
1148:../../STM32F1_files/CMSIS/core_cm3.h ****   __IOM uint32_t RBAR_A1;                /*!< Offset: 0x014 (R/W)  MPU Alias 1 Region Base Address 
1149:../../STM32F1_files/CMSIS/core_cm3.h ****   __IOM uint32_t RASR_A1;                /*!< Offset: 0x018 (R/W)  MPU Alias 1 Region Attribute and
1150:../../STM32F1_files/CMSIS/core_cm3.h ****   __IOM uint32_t RBAR_A2;                /*!< Offset: 0x01C (R/W)  MPU Alias 2 Region Base Address 
1151:../../STM32F1_files/CMSIS/core_cm3.h ****   __IOM uint32_t RASR_A2;                /*!< Offset: 0x020 (R/W)  MPU Alias 2 Region Attribute and
1152:../../STM32F1_files/CMSIS/core_cm3.h ****   __IOM uint32_t RBAR_A3;                /*!< Offset: 0x024 (R/W)  MPU Alias 3 Region Base Address 
1153:../../STM32F1_files/CMSIS/core_cm3.h ****   __IOM uint32_t RASR_A3;                /*!< Offset: 0x028 (R/W)  MPU Alias 3 Region Attribute and
1154:../../STM32F1_files/CMSIS/core_cm3.h **** } MPU_Type;
1155:../../STM32F1_files/CMSIS/core_cm3.h **** 
1156:../../STM32F1_files/CMSIS/core_cm3.h **** /* MPU Type Register Definitions */
1157:../../STM32F1_files/CMSIS/core_cm3.h **** #define MPU_TYPE_IREGION_Pos               16U                                            /*!< MPU 
1158:../../STM32F1_files/CMSIS/core_cm3.h **** #define MPU_TYPE_IREGION_Msk               (0xFFUL << MPU_TYPE_IREGION_Pos)               /*!< MPU 
1159:../../STM32F1_files/CMSIS/core_cm3.h **** 
1160:../../STM32F1_files/CMSIS/core_cm3.h **** #define MPU_TYPE_DREGION_Pos                8U                                            /*!< MPU 
1161:../../STM32F1_files/CMSIS/core_cm3.h **** #define MPU_TYPE_DREGION_Msk               (0xFFUL << MPU_TYPE_DREGION_Pos)               /*!< MPU 
1162:../../STM32F1_files/CMSIS/core_cm3.h **** 
1163:../../STM32F1_files/CMSIS/core_cm3.h **** #define MPU_TYPE_SEPARATE_Pos               0U                                            /*!< MPU 
1164:../../STM32F1_files/CMSIS/core_cm3.h **** #define MPU_TYPE_SEPARATE_Msk              (1UL /*<< MPU_TYPE_SEPARATE_Pos*/)             /*!< MPU 
1165:../../STM32F1_files/CMSIS/core_cm3.h **** 
1166:../../STM32F1_files/CMSIS/core_cm3.h **** /* MPU Control Register Definitions */
1167:../../STM32F1_files/CMSIS/core_cm3.h **** #define MPU_CTRL_PRIVDEFENA_Pos             2U                                            /*!< MPU 
1168:../../STM32F1_files/CMSIS/core_cm3.h **** #define MPU_CTRL_PRIVDEFENA_Msk            (1UL << MPU_CTRL_PRIVDEFENA_Pos)               /*!< MPU 
1169:../../STM32F1_files/CMSIS/core_cm3.h **** 
1170:../../STM32F1_files/CMSIS/core_cm3.h **** #define MPU_CTRL_HFNMIENA_Pos               1U                                            /*!< MPU 
1171:../../STM32F1_files/CMSIS/core_cm3.h **** #define MPU_CTRL_HFNMIENA_Msk              (1UL << MPU_CTRL_HFNMIENA_Pos)                 /*!< MPU 
1172:../../STM32F1_files/CMSIS/core_cm3.h **** 
1173:../../STM32F1_files/CMSIS/core_cm3.h **** #define MPU_CTRL_ENABLE_Pos                 0U                                            /*!< MPU 
1174:../../STM32F1_files/CMSIS/core_cm3.h **** #define MPU_CTRL_ENABLE_Msk                (1UL /*<< MPU_CTRL_ENABLE_Pos*/)               /*!< MPU 
1175:../../STM32F1_files/CMSIS/core_cm3.h **** 
1176:../../STM32F1_files/CMSIS/core_cm3.h **** /* MPU Region Number Register Definitions */
1177:../../STM32F1_files/CMSIS/core_cm3.h **** #define MPU_RNR_REGION_Pos                  0U                                            /*!< MPU 
1178:../../STM32F1_files/CMSIS/core_cm3.h **** #define MPU_RNR_REGION_Msk                 (0xFFUL /*<< MPU_RNR_REGION_Pos*/)             /*!< MPU 
1179:../../STM32F1_files/CMSIS/core_cm3.h **** 
ARM GAS  /tmp/ccaB5zJT.s 			page 72


1180:../../STM32F1_files/CMSIS/core_cm3.h **** /* MPU Region Base Address Register Definitions */
1181:../../STM32F1_files/CMSIS/core_cm3.h **** #define MPU_RBAR_ADDR_Pos                   5U                                            /*!< MPU 
1182:../../STM32F1_files/CMSIS/core_cm3.h **** #define MPU_RBAR_ADDR_Msk                  (0x7FFFFFFUL << MPU_RBAR_ADDR_Pos)             /*!< MPU 
1183:../../STM32F1_files/CMSIS/core_cm3.h **** 
1184:../../STM32F1_files/CMSIS/core_cm3.h **** #define MPU_RBAR_VALID_Pos                  4U                                            /*!< MPU 
1185:../../STM32F1_files/CMSIS/core_cm3.h **** #define MPU_RBAR_VALID_Msk                 (1UL << MPU_RBAR_VALID_Pos)                    /*!< MPU 
1186:../../STM32F1_files/CMSIS/core_cm3.h **** 
1187:../../STM32F1_files/CMSIS/core_cm3.h **** #define MPU_RBAR_REGION_Pos                 0U                                            /*!< MPU 
